

Microchip MPLAB XC8 Assembler V2.46 build 20240104201356 
                                                                                               Wed Apr 24 13:59:36 2024

Microchip MPLAB XC8 C Compiler v2.46 (Free license) build 20240104201356 Og1 
     1                           	processor	18F47K42
     2                           	fnconf	rparam,??,?,0
     3                           	pagewidth 120
     4                           	opt	flic
     5                           	psect	idataCOMRAM,global,class=CODE,delta=1,noexec
     6                           	psect	smallconst,global,reloc=2,class=SMALLCONST,delta=1,noexec
     7                           	psect	nvCOMRAM,global,class=COMRAM,space=1,delta=1,lowdata,noexec
     8                           	psect	cinit,global,reloc=2,class=CODE,delta=1
     9                           	psect	bssCOMRAM,global,class=COMRAM,space=1,delta=1,lowdata,noexec
    10                           	psect	dataCOMRAM,global,class=COMRAM,space=1,delta=1,lowdata,noexec
    11                           	psect	cstackCOMRAM,global,class=COMRAM,space=1,delta=1,lowdata,noexec
    12                           	psect	text0,global,reloc=2,class=CODE,delta=1
    13                           	psect	text1,global,reloc=2,class=CODE,delta=1
    14                           	psect	text2,global,reloc=2,class=CODE,delta=1
    15                           	psect	text3,global,reloc=2,class=CODE,delta=1
    16                           	psect	text4,global,reloc=2,class=CODE,delta=1
    17                           	psect	text5,global,reloc=2,class=CODE,delta=1,group=1
    18                           	psect	text6,global,reloc=2,class=CODE,delta=1,group=1
    19                           	psect	text7,global,reloc=2,class=CODE,delta=1,group=1
    20                           	psect	intsave_regs,global,class=BIGRAM,space=1,delta=1,noexec
    21                           	psect	rparam,global,class=COMRAM,space=1,delta=1,noexec
    22                           	psect	config,global,abs,ovrld,class=CONFIG,space=4,delta=1,noexec
    23   000000                     
    24                           ; Generated 12/10/2023 GMT
    25                           ; 
    26                           ; Copyright © 2023, Microchip Technology Inc. and its subsidiaries ("Microchip")
    27                           ; All rights reserved.
    28                           ; 
    29                           ; This software is developed by Microchip Technology Inc. and its subsidiaries ("Microch
      +                          ip").
    30                           ; 
    31                           ; Redistribution and use in source and binary forms, with or without modification, are
    32                           ; permitted provided that the following conditions are met:
    33                           ; 
    34                           ;     1. Redistributions of source code must retain the above copyright notice, this lis
      +                          t of
    35                           ;        conditions and the following disclaimer.
    36                           ; 
    37                           ;     2. Redistributions in binary form must reproduce the above copyright notice, this 
      +                          list
    38                           ;        of conditions and the following disclaimer in the documentation and/or other
    39                           ;        materials provided with the distribution. Publication is not required when
    40                           ;        this file is used in an embedded application.
    41                           ; 
    42                           ;     3. Microchip's name may not be used to endorse or promote products derived from th
      +                          is
    43                           ;        software without specific prior written permission.
    44                           ; 
    45                           ; THIS SOFTWARE IS PROVIDED BY MICROCHIP "AS IS" AND ANY EXPRESS OR IMPLIED WARRANTIES,
    46                           ; INCLUDING, BUT NOT LIMITED TO, THE IMPLIED WARRANTIES OF MERCHANTABILITY AND FITNESS F
      +                          OR
    47                           ; PURPOSE ARE DISCLAIMED.  IN NO EVENT SHALL MICROCHIP BE LIABLE FOR ANY DIRECT, INDIREC
      +                          T,
    48                           ; INCIDENTAL, SPECIAL, EXEMPLARY, OR CONSEQUENTIAL DAMAGES (INCLUDING BUT NOT LIMITED TO
    49                           ; PROCUREMENT OF SUBSTITUTE GOODS OR SERVICES; LOSS OF USE, DATA OR PROFITS; OR BUSINESS
    50                           ; INTERRUPTION) HOWSOEVER CAUSED AND ON ANY THEORY OF LIABILITY, WHETHER IN CONTRACT, ST
      +                          RICT
    51                           ; LIABILITY, OR TORT (INCLUDING NEGLIGENCE OR OTHERWISE) ARISING IN ANY WAY OUT OF THE U
      +                          SE OF
    52                           ; THIS SOFTWARE, EVEN IF ADVISED OF THE POSSIBILITY OF SUCH DAMAGE.
    53                           ; 
    54                           ; 
    55                           ; Code-generator required, PIC18F47K42 Definitions
    56                           ; 
    57                           ; SFR Addresses
    58   000000                     
    59                           	psect	idataCOMRAM
    60   002CFC                     __pidataCOMRAM:
    61                           	callstack 0
    62                           
    63                           ;initializer for _pressedKey
    64   002CFC  FFFF               	dw	65535
    65                           
    66                           ;initializer for _LCode
    67   002CFE  0003               	dw	3
    68                           
    69                           ;initializer for _HCode
    70   002D00  0002               	dw	2
    71                           
    72                           	psect	smallconst
    73   002000                     __psmallconst:
    74                           	callstack 0
    75   002000  00                 	db	0
    76   002001                     scanKeypad@F16536:
    77                           	callstack 0
    78   002001  0001               	dw	1
    79   002003  0002               	dw	2
    80   002005  0003               	dw	3
    81   002007  0004               	dw	4
    82   002009  0005               	dw	5
    83   00200B  0006               	dw	6
    84   00200D  0007               	dw	7
    85   00200F  0008               	dw	8
    86   002011  0009               	dw	9
    87   002013  000A               	dw	10
    88   002015  0000               	dw	0
    89   002017  000B               	dw	11
    90   002019                     __end_ofscanKeypad@F16536:
    91                           	callstack 0
    92   002019                     _segmentPatterns:
    93                           	callstack 0
    94   002019  D7                 	db	215
    95   00201A  44                 	db	68
    96   00201B  E3                 	db	227
    97   00201C  E6                 	db	230
    98   00201D  D4                 	db	212
    99   00201E  E6                 	db	230
   100   00201F  E7                 	db	231
   101   002020  34                 	db	52
   102   002021  F7                 	db	247
   103   002022  F6                 	db	246
   104   002023                     __end_of_segmentPatterns:
   105                           	callstack 0
   106   000000                     _ADPREH	set	16119
   107   000000                     _TRISB	set	16323
   108   002023  00                 	db	0	; dummy byte at the end
   109   000000                     
   110                           	psect	nvCOMRAM
   111   000050                     __pnvCOMRAM:
   112                           	callstack 0
   113   000050                     _prB:
   114                           	callstack 0
   115   000050                     	ds	2
   116   000052                     _prA:
   117                           	callstack 0
   118   000052                     	ds	2
   119   000000                     _PORTBbits	set	16331
   120   000000                     _TRISAbits	set	16322
   121   000000                     _PORTC	set	16332
   122   000000                     _ANSELAbits	set	14912
   123   000000                     _ANSELB	set	14928
   124   000000                     _ANSELC	set	14944
   125   000000                     _ANSELD	set	14960
   126   000000                     _ADRESL	set	16111
   127   000000                     _ADRESH	set	16112
   128   000000                     _ADPCH	set	16113
   129   000000                     _ADACQL	set	16115
   130   000000                     _ADPREL	set	16118
   131   000000                     _ADCON0bits	set	16120
   132   000000                     _PORTCbits	set	16332
   133   000000                     _PORTD	set	16333
   134   000000                     _ADCLK	set	16127
   135   000000                     _TRISA	set	16322
   136   000000                     _TRISC	set	16324
   137   000000                     _TRISD	set	16325
   138   000000                     _PORTB	set	16331
   139   000000                     _ADACQH	set	16116
   140                           
   141                           ; #config settings
   142                           
   143                           	psect	cinit
   144   002CC0                     __pcinit:
   145                           	callstack 0
   146   002CC0                     start_initialization:
   147                           	callstack 0
   148   002CC0                     __initialization:
   149                           	callstack 0
   150                           
   151                           ; Initialize objects allocated to COMRAM (6 bytes)
   152                           ; load TBLPTR registers with __pidataCOMRAM
   153   002CC0  0EFC               	movlw	low __pidataCOMRAM
   154   002CC2  6EF6               	movwf	tblptrl,c
   155   002CC4  0E2C               	movlw	high __pidataCOMRAM
   156   002CC6  6EF7               	movwf	tblptrh,c
   157   002CC8  0E00               	movlw	low (__pidataCOMRAM shr (0+16))
   158   002CCA  6EF8               	movwf	tblptru,c
   159   002CCC  EE00  F04A         	lfsr	0,__pdataCOMRAM
   160   002CD0  EE10 F006          	lfsr	1,6
   161   002CD4                     copy_data0:
   162   002CD4  0009               	tblrd		*+
   163   002CD6  006F FFD7 FFEE     	movff	tablat,postinc0
   164   002CDC  50E5               	movf	postdec1,w,c
   165   002CDE  50E1               	movf	fsr1l,w,c
   166   002CE0  E1F9               	bnz	copy_data0
   167                           
   168                           ; Clear objects allocated to COMRAM (24 bytes)
   169   002CE2  EE00  F032         	lfsr	0,__pbssCOMRAM
   170   002CE6  0E18               	movlw	24
   171   002CE8                     clear_0:
   172   002CE8  6AEE               	clrf	postinc0,c
   173   002CEA  06E8               	decf	wreg,f,c
   174   002CEC  E1FD               	bnz	clear_0
   175   002CEE                     end_of_initialization:
   176                           	callstack 0
   177   002CEE                     __end_of__initialization:
   178                           	callstack 0
   179   002CEE  0E00               	movlw	low (__Lsmallconst shr (0+16))
   180   002CF0  6EF8               	movwf	tblptru,c
   181   002CF2  0E20               	movlw	high __Lsmallconst
   182   002CF4  6EF7               	movwf	tblptrh,c
   183   002CF6  0100               	movlb	0
   184   002CF8  EF39  F012         	goto	_main	;jump to C main() function
   185                           
   186                           	psect	bssCOMRAM
   187   000032                     __pbssCOMRAM:
   188                           	callstack 0
   189   000032                     _data:
   190                           	callstack 0
   191   000032                     	ds	10
   192   00003C                     _voltage:
   193                           	callstack 0
   194   00003C                     	ds	4
   195   000040                     _temp:
   196                           	callstack 0
   197   000040                     	ds	2
   198   000042                     _vSwitch:
   199                           	callstack 0
   200   000042                     	ds	2
   201   000044                     _countB:
   202                           	callstack 0
   203   000044                     	ds	2
   204   000046                     _countA:
   205                           	callstack 0
   206   000046                     	ds	2
   207   000048                     _digital:
   208                           	callstack 0
   209   000048                     	ds	2
   210                           
   211                           	psect	dataCOMRAM
   212   00004A                     __pdataCOMRAM:
   213                           	callstack 0
   214   00004A                     _pressedKey:
   215                           	callstack 0
   216   00004A                     	ds	2
   217   00004C                     _LCode:
   218                           	callstack 0
   219   00004C                     	ds	2
   220   00004E                     _HCode:
   221                           	callstack 0
   222   00004E                     	ds	2
   223                           
   224                           	psect	cstackCOMRAM
   225   000001                     __pcstackCOMRAM:
   226                           	callstack 0
   227   000001                     ??_scanKeypad:
   228   000001                     ??_error:
   229   000001                     ?___xxtofl:
   230                           	callstack 0
   231   000001                     ___flge@ff1:
   232                           	callstack 0
   233   000001                     ___xxtofl@val:
   234                           	callstack 0
   235                           
   236                           ; 4 bytes @ 0x0
   237   000001                     	ds	2
   238   000003                     error@i:
   239                           	callstack 0
   240   000003                     scanKeypad@keypadLayout:
   241                           	callstack 0
   242                           
   243                           ; 24 bytes @ 0x2
   244   000003                     	ds	2
   245   000005                     ??___xxtofl:
   246   000005                     ___flge@ff2:
   247                           	callstack 0
   248                           
   249                           ; 4 bytes @ 0x4
   250   000005                     	ds	4
   251   000009                     ??___flge:
   252   000009                     ___xxtofl@sign:
   253                           	callstack 0
   254                           
   255                           ; 1 bytes @ 0x8
   256   000009                     	ds	1
   257   00000A                     ___xxtofl@exp:
   258                           	callstack 0
   259                           
   260                           ; 1 bytes @ 0x9
   261   00000A                     	ds	1
   262   00000B                     ___xxtofl@arg:
   263                           	callstack 0
   264                           
   265                           ; 4 bytes @ 0xA
   266   00000B                     	ds	4
   267   00000F                     ?___flmul:
   268                           	callstack 0
   269   00000F                     ___flmul@b:
   270                           	callstack 0
   271                           
   272                           ; 4 bytes @ 0xE
   273   00000F                     	ds	4
   274   000013                     ___flmul@a:
   275                           	callstack 0
   276                           
   277                           ; 4 bytes @ 0x12
   278   000013                     	ds	4
   279   000017                     ??___flmul:
   280                           
   281                           ; 1 bytes @ 0x16
   282   000017                     	ds	4
   283   00001B                     ___flmul@sign:
   284                           	callstack 0
   285   00001B                     scanKeypad@row:
   286                           	callstack 0
   287                           
   288                           ; 2 bytes @ 0x1A
   289   00001B                     	ds	1
   290   00001C                     ___flmul@grs:
   291                           	callstack 0
   292                           
   293                           ; 4 bytes @ 0x1B
   294   00001C                     	ds	1
   295   00001D                     scanKeypad@col:
   296                           	callstack 0
   297                           
   298                           ; 2 bytes @ 0x1C
   299   00001D                     	ds	3
   300   000020                     ___flmul@aexp:
   301                           	callstack 0
   302                           
   303                           ; 1 bytes @ 0x1F
   304   000020                     	ds	1
   305   000021                     ___flmul@bexp:
   306                           	callstack 0
   307                           
   308                           ; 1 bytes @ 0x20
   309   000021                     	ds	1
   310   000022                     ___flmul@prod:
   311                           	callstack 0
   312                           
   313                           ; 4 bytes @ 0x21
   314   000022                     	ds	4
   315   000026                     ___flmul@temp:
   316                           	callstack 0
   317                           
   318                           ; 2 bytes @ 0x25
   319   000026                     	ds	2
   320   000028                     ?_conv:
   321                           	callstack 0
   322                           
   323                           ; 2 bytes @ 0x27
   324   000028                     	ds	2
   325   00002A                     ??_conv:
   326                           
   327                           ; 1 bytes @ 0x29
   328   00002A                     	ds	2
   329   00002C                     ??_main:
   330                           
   331                           ; 1 bytes @ 0x2B
   332   00002C                     	ds	2
   333   00002E                     main@pattern_234:
   334                           	callstack 0
   335                           
   336                           ; 1 bytes @ 0x2D
   337   00002E                     	ds	1
   338   00002F                     main@pattern_235:
   339                           	callstack 0
   340                           
   341                           ; 1 bytes @ 0x2E
   342   00002F                     	ds	1
   343   000030                     main@pattern_236:
   344                           	callstack 0
   345                           
   346                           ; 1 bytes @ 0x2F
   347   000030                     	ds	1
   348   000031                     main@pattern_237:
   349                           	callstack 0
   350                           
   351                           ; 1 bytes @ 0x30
   352   000031                     	ds	1
   353                           
   354 ;;
   355 ;;Main: autosize = 0, tempsize = 2, incstack = 0, save=0
   356 ;;
   357 ;; *************** function _main *****************
   358 ;; Defined at:
   359 ;;		line 119 in file "main.c"
   360 ;; Parameters:    Size  Location     Type
   361 ;;		None
   362 ;; Auto vars:     Size  Location     Type
   363 ;;  pattern         1   46[COMRAM] unsigned char 
   364 ;;  pattern         1   45[COMRAM] unsigned char 
   365 ;;  pattern         1   48[COMRAM] unsigned char 
   366 ;;  pattern         1   47[COMRAM] unsigned char 
   367 ;;  pattern         1    0        unsigned char 
   368 ;; Return value:  Size  Location     Type
   369 ;;                  1    wreg      void 
   370 ;; Registers used:
   371 ;;		wreg, fsr2l, fsr2h, status,2, status,0, tblptrl, tblptrh, tblptru, prodl, prodh, cstack
   372 ;; Tracked objects:
   373 ;;		On entry : 0/0
   374 ;;		On exit  : 0/0
   375 ;;		Unchanged: 0/0
   376 ;; Data sizes:     COMRAM   BANK0   BANK1   BANK2   BANK3   BANK4   BANK5   BANK6   BANK7   BANK8   BANK9  BANK10  BANK1
      +1  BANK12  BANK13  BANK14  BANK15  BANK16  BANK17  BANK18  BANK19  BANK20  BANK21  BANK22  BANK23  BANK24  BANK25  BANK2
      +6  BANK27  BANK28  BANK29  BANK30  BANK31
   377 ;;      Params:         0       0       0       0       0       0       0       0       0       0       0       0       
      +0       0       0       0       0       0       0       0       0       0       0       0       0       0       0       
      +0       0       0       0       0       0
   378 ;;      Locals:         4       0       0       0       0       0       0       0       0       0       0       0       
      +0       0       0       0       0       0       0       0       0       0       0       0       0       0       0       
      +0       0       0       0       0       0
   379 ;;      Temps:          2       0       0       0       0       0       0       0       0       0       0       0       
      +0       0       0       0       0       0       0       0       0       0       0       0       0       0       0       
      +0       0       0       0       0       0
   380 ;;      Totals:         6       0       0       0       0       0       0       0       0       0       0       0       
      +0       0       0       0       0       0       0       0       0       0       0       0       0       0       0       
      +0       0       0       0       0       0
   381 ;;Total ram usage:        6 bytes
   382 ;; Hardware stack levels required when called: 2
   383 ;; This function calls:
   384 ;;		_conv
   385 ;;		_error
   386 ;;		_scanKeypad
   387 ;;		_setupPorts
   388 ;; This function is called by:
   389 ;;		Startup code after reset
   390 ;; This function uses a non-reentrant model
   391 ;;
   392                           
   393                           	psect	text0
   394   002472                     __ptext0:
   395                           	callstack 0
   396   002472                     _main:
   397                           	callstack 29
   398   002472                     
   399                           ;main.c: 121:     setupPorts();
   400   002472  EC2A  F016         	call	_setupPorts	;wreg free
   401   002476                     l1459:
   402                           
   403                           ;main.c: 124:         ADPCH = 0x03;
   404   002476  0E03               	movlw	3
   405   002478  013E               	movlb	62	; () banked
   406   00247A  6FF1               	movwf	241,b	;volatile
   407   00247C                     
   408                           ; BSR set to: 62
   409                           ;main.c: 125:         prA = conv();
   410   00247C  EC11  F015         	call	_conv	;wreg free
   411   002480  C028  F052         	movff	?_conv,_prA
   412   002484  C029  F053         	movff	?_conv+1,_prA+1
   413   002488                     
   414                           ;main.c: 126:         ADPCH = 0x04;
   415   002488  0E04               	movlw	4
   416   00248A  013E               	movlb	62	; () banked
   417   00248C  6FF1               	movwf	241,b	;volatile
   418   00248E                     
   419                           ; BSR set to: 62
   420                           ;main.c: 127:         prB = conv();
   421   00248E  EC11  F015         	call	_conv	;wreg free
   422   002492  C028  F050         	movff	?_conv,_prB
   423   002496  C029  F051         	movff	?_conv+1,_prB+1
   424   00249A                     
   425                           ;main.c: 129:         scanKeypad();
   426   00249A  EC82  F015         	call	_scanKeypad	;wreg free
   427   00249E                     
   428                           ;main.c: 131:         if (pressedKey == 10) {
   429   00249E  0E0A               	movlw	10
   430   0024A0  184A               	xorwf	_pressedKey^0,w,c
   431   0024A2  104B               	iorwf	(_pressedKey+1)^0,w,c
   432   0024A4  A4D8               	btfss	status,2,c
   433   0024A6  EF57  F012         	goto	u991
   434   0024AA  EF59  F012         	goto	u990
   435   0024AE                     u991:
   436   0024AE  EFD2  F012         	goto	l88
   437   0024B2                     u990:
   438   0024B2                     
   439                           ;main.c: 132:             temp = 1;
   440   0024B2  0E00               	movlw	0
   441   0024B4  6E41               	movwf	(_temp+1)^0,c
   442   0024B6  0E01               	movlw	1
   443   0024B8  6E40               	movwf	_temp^0,c
   444   0024BA                     
   445                           ;main.c: 133:             HCode = -1;
   446   0024BA  684E               	setf	_HCode^0,c
   447   0024BC  684F               	setf	(_HCode+1)^0,c
   448   0024BE                     
   449                           ;main.c: 134:             LCode = -1;
   450   0024BE  684C               	setf	_LCode^0,c
   451   0024C0  684D               	setf	(_LCode+1)^0,c
   452   0024C2                     
   453                           ;main.c: 135:             PORTCbits.RC3 = 0;
   454   0024C2  96CC               	bcf	204,3,c	;volatile
   455   0024C4                     
   456                           ;main.c: 136:             _delay((unsigned long)((500)*(4000000/4000.0)));
   457   0024C4  0E03               	movlw	3
   458   0024C6  6E2D               	movwf	(??_main+1)^0,c
   459   0024C8  0E8A               	movlw	138
   460   0024CA  6E2C               	movwf	??_main^0,c
   461   0024CC  0E56               	movlw	86
   462   0024CE                     u1177:
   463   0024CE  2EE8               	decfsz	wreg,f,c
   464   0024D0  D7FE               	bra	u1177
   465   0024D2  2E2C               	decfsz	??_main^0,f,c
   466   0024D4  D7FC               	bra	u1177
   467   0024D6  2E2D               	decfsz	(??_main+1)^0,f,c
   468   0024D8  D7FA               	bra	u1177
   469   0024DA                     
   470                           ;main.c: 137:             PORTCbits.RC3 = 1;
   471   0024DA  86CC               	bsf	204,3,c	;volatile
   472                           
   473                           ;main.c: 139:             while (temp == 1) {
   474   0024DC  EFC7  F012         	goto	l1513
   475   0024E0                     l1483:
   476                           
   477                           ;main.c: 140:                 scanKeypad();
   478   0024E0  EC82  F015         	call	_scanKeypad	;wreg free
   479   0024E4                     
   480                           ;main.c: 141:                 if (pressedKey > -1) {
   481   0024E4  BE4B               	btfsc	(_pressedKey+1)^0,7,c
   482   0024E6  EF77  F012         	goto	u1001
   483   0024EA  EF79  F012         	goto	u1000
   484   0024EE                     u1001:
   485   0024EE  EF97  F012         	goto	l1497
   486   0024F2                     u1000:
   487   0024F2                     
   488                           ;main.c: 142:                     pressedKey = HCode;
   489   0024F2  C04E  F04A         	movff	_HCode,_pressedKey
   490   0024F6  C04F  F04B         	movff	_HCode+1,_pressedKey+1
   491   0024FA                     
   492                           ;main.c: 143:                     uint8_t pattern = segmentPatterns[HCode];
   493   0024FA  504E               	movf	_HCode^0,w,c
   494   0024FC  0F19               	addlw	low _segmentPatterns
   495   0024FE  6E2C               	movwf	??_main^0,c
   496   002500  0060  F0B3  FFF6   	movff	??_main,tblptrl
   497   002506                     	if	0	;There is only one active tblptr byte
   498   002506                     	endif
   499   002506                     	if	0	;tblptru may be non-zero
   500   002506                     	endif
   501   002506                     	if	0	;tblptru may be non-zero
   502   002506                     	endif
   503   002506  0008               	tblrd		*
   504   002508  006F FFD4  F02E    	movff	tablat,main@pattern_234
   505   00250E                     
   506                           ;main.c: 144:                     PORTD = pattern;
   507   00250E  0060  F0BB  FFCD   	movff	main@pattern_234,16333	;volatile
   508   002514                     
   509                           ;main.c: 145:                     _delay((unsigned long)((500)*(4000000/4000.0)));
   510   002514  0E03               	movlw	3
   511   002516  6E2D               	movwf	(??_main+1)^0,c
   512   002518  0E8A               	movlw	138
   513   00251A  6E2C               	movwf	??_main^0,c
   514   00251C  0E56               	movlw	86
   515   00251E                     u1187:
   516   00251E  2EE8               	decfsz	wreg,f,c
   517   002520  D7FE               	bra	u1187
   518   002522  2E2C               	decfsz	??_main^0,f,c
   519   002524  D7FC               	bra	u1187
   520   002526  2E2D               	decfsz	(??_main+1)^0,f,c
   521   002528  D7FA               	bra	u1187
   522   00252A                     
   523                           ;main.c: 146:                     PORTD = 0x00;
   524   00252A  0E00               	movlw	0
   525   00252C  6ECD               	movwf	205,c	;volatile
   526   00252E                     l1497:
   527                           
   528                           ;main.c: 150:                 if (HCode > -1 && pressedKey > -1) {
   529   00252E  BE4F               	btfsc	(_HCode+1)^0,7,c
   530   002530  EF9C  F012         	goto	u1011
   531   002534  EF9E  F012         	goto	u1010
   532   002538                     u1011:
   533   002538  EFC7  F012         	goto	l1513
   534   00253C                     u1010:
   535   00253C  BE4B               	btfsc	(_pressedKey+1)^0,7,c
   536   00253E  EFA3  F012         	goto	u1021
   537   002542  EFA5  F012         	goto	u1020
   538   002546                     u1021:
   539   002546  EFC7  F012         	goto	l1513
   540   00254A                     u1020:
   541   00254A                     
   542                           ;main.c: 151:                     pressedKey = LCode;
   543   00254A  C04C  F04A         	movff	_LCode,_pressedKey
   544   00254E  C04D  F04B         	movff	_LCode+1,_pressedKey+1
   545   002552                     
   546                           ;main.c: 152:                     uint8_t pattern = segmentPatterns[LCode];
   547   002552  504C               	movf	_LCode^0,w,c
   548   002554  0F19               	addlw	low _segmentPatterns
   549   002556  6E2C               	movwf	??_main^0,c
   550   002558  0060  F0B3  FFF6   	movff	??_main,tblptrl
   551   00255E                     	if	0	;There is only one active tblptr byte
   552   00255E                     	endif
   553   00255E                     	if	0	;tblptru may be non-zero
   554   00255E                     	endif
   555   00255E                     	if	0	;tblptru may be non-zero
   556   00255E                     	endif
   557   00255E  0008               	tblrd		*
   558   002560  006F FFD4  F02F    	movff	tablat,main@pattern_235
   559   002566                     
   560                           ;main.c: 153:                     PORTD = pattern;
   561   002566  0060  F0BF  FFCD   	movff	main@pattern_235,16333	;volatile
   562   00256C                     
   563                           ;main.c: 154:                     _delay((unsigned long)((500)*(4000000/4000.0)));
   564   00256C  0E03               	movlw	3
   565   00256E  6E2D               	movwf	(??_main+1)^0,c
   566   002570  0E8A               	movlw	138
   567   002572  6E2C               	movwf	??_main^0,c
   568   002574  0E56               	movlw	86
   569   002576                     u1197:
   570   002576  2EE8               	decfsz	wreg,f,c
   571   002578  D7FE               	bra	u1197
   572   00257A  2E2C               	decfsz	??_main^0,f,c
   573   00257C  D7FC               	bra	u1197
   574   00257E  2E2D               	decfsz	(??_main+1)^0,f,c
   575   002580  D7FA               	bra	u1197
   576   002582                     
   577                           ;main.c: 155:                     PORTD = 0x00;
   578   002582  0E00               	movlw	0
   579   002584  6ECD               	movwf	205,c	;volatile
   580   002586                     
   581                           ;main.c: 156:                     temp = 0;
   582   002586  0E00               	movlw	0
   583   002588  6E41               	movwf	(_temp+1)^0,c
   584   00258A  0E00               	movlw	0
   585   00258C  6E40               	movwf	_temp^0,c
   586   00258E                     l1513:
   587                           
   588                           ;main.c: 139:             while (temp == 1) {
   589   00258E  0440               	decf	_temp^0,w,c
   590   002590  1041               	iorwf	(_temp+1)^0,w,c
   591   002592  B4D8               	btfsc	status,2,c
   592   002594  EFCE  F012         	goto	u1031
   593   002598  EFD0  F012         	goto	u1030
   594   00259C                     u1031:
   595   00259C  EF70  F012         	goto	l1483
   596   0025A0                     u1030:
   597   0025A0  EFD4  F012         	goto	l94
   598   0025A4                     l88:
   599                           
   600                           ;main.c: 161:             pressedKey = -1;
   601   0025A4  684A               	setf	_pressedKey^0,c
   602   0025A6  684B               	setf	(_pressedKey+1)^0,c
   603   0025A8                     l94:
   604                           
   605                           ;main.c: 164:         if (PORTCbits.RC4 == 1) {
   606   0025A8  A8CC               	btfss	204,4,c	;volatile
   607   0025AA  EFD9  F012         	goto	u1041
   608   0025AE  EFDB  F012         	goto	u1040
   609   0025B2                     u1041:
   610   0025B2  EFE1  F012         	goto	l1517
   611   0025B6                     u1040:
   612   0025B6                     
   613                           ;main.c: 165:             vSwitch = 1;
   614   0025B6  0E00               	movlw	0
   615   0025B8  6E43               	movwf	(_vSwitch+1)^0,c
   616   0025BA  0E01               	movlw	1
   617   0025BC  6E42               	movwf	_vSwitch^0,c
   618                           
   619                           ;main.c: 166:         }
   620   0025BE  EFE5  F012         	goto	l1519
   621   0025C2                     l1517:
   622                           
   623                           ;main.c: 168:             vSwitch = 0;
   624   0025C2  0E00               	movlw	0
   625   0025C4  6E43               	movwf	(_vSwitch+1)^0,c
   626   0025C6  0E00               	movlw	0
   627   0025C8  6E42               	movwf	_vSwitch^0,c
   628   0025CA                     l1519:
   629                           
   630                           ;main.c: 172:         if (prA == 1) {
   631   0025CA  0452               	decf	_prA^0,w,c
   632   0025CC  1053               	iorwf	(_prA+1)^0,w,c
   633   0025CE  A4D8               	btfss	status,2,c
   634   0025D0  EFEC  F012         	goto	u1051
   635   0025D4  EFEE  F012         	goto	u1050
   636   0025D8                     u1051:
   637   0025D8  EF0A  F013         	goto	l1529
   638   0025DC                     u1050:
   639   0025DC                     
   640                           ;main.c: 173:             ++countA;
   641   0025DC  4A46               	infsnz	_countA^0,f,c
   642   0025DE  2A47               	incf	(_countA+1)^0,f,c
   643   0025E0                     
   644                           ;main.c: 174:             if (countA >= 1) {
   645   0025E0  BE47               	btfsc	(_countA+1)^0,7,c
   646   0025E2  EFFB  F012         	goto	u1061
   647   0025E6  5047               	movf	(_countA+1)^0,w,c
   648   0025E8  E108               	bnz	u1060
   649   0025EA  0446               	decf	_countA^0,w,c
   650   0025EC  A0D8               	btfss	status,0,c
   651   0025EE  EFFB  F012         	goto	u1061
   652   0025F2  EFFD  F012         	goto	u1060
   653   0025F6                     u1061:
   654   0025F6  EF0A  F013         	goto	l1529
   655   0025FA                     u1060:
   656   0025FA                     
   657                           ;main.c: 175:             uint8_t pattern = segmentPatterns[countA];
   658   0025FA  5046               	movf	_countA^0,w,c
   659   0025FC  0F19               	addlw	low _segmentPatterns
   660   0025FE  6E2C               	movwf	??_main^0,c
   661   002600  0060  F0B3  FFF6   	movff	??_main,tblptrl
   662   002606                     	if	0	;There is only one active tblptr byte
   663   002606                     	endif
   664   002606                     	if	0	;tblptru may be non-zero
   665   002606                     	endif
   666   002606                     	if	0	;tblptru may be non-zero
   667   002606                     	endif
   668   002606  0008               	tblrd		*
   669   002608  006F FFD4  F030    	movff	tablat,main@pattern_236
   670   00260E                     
   671                           ;main.c: 177:             PORTD = pattern;
   672   00260E  0060  F0C3  FFCD   	movff	main@pattern_236,16333	;volatile
   673   002614                     l1529:
   674                           
   675                           ;main.c: 181:         if (prB == 1) {
   676   002614  0450               	decf	_prB^0,w,c
   677   002616  1051               	iorwf	(_prB+1)^0,w,c
   678   002618  A4D8               	btfss	status,2,c
   679   00261A  EF11  F013         	goto	u1071
   680   00261E  EF13  F013         	goto	u1070
   681   002622                     u1071:
   682   002622  EF2F  F013         	goto	l1539
   683   002626                     u1070:
   684   002626                     
   685                           ;main.c: 182:             ++countB;
   686   002626  4A44               	infsnz	_countB^0,f,c
   687   002628  2A45               	incf	(_countB+1)^0,f,c
   688   00262A                     
   689                           ;main.c: 183:             if (countB >= 1) {
   690   00262A  BE45               	btfsc	(_countB+1)^0,7,c
   691   00262C  EF20  F013         	goto	u1081
   692   002630  5045               	movf	(_countB+1)^0,w,c
   693   002632  E108               	bnz	u1080
   694   002634  0444               	decf	_countB^0,w,c
   695   002636  A0D8               	btfss	status,0,c
   696   002638  EF20  F013         	goto	u1081
   697   00263C  EF22  F013         	goto	u1080
   698   002640                     u1081:
   699   002640  EF2F  F013         	goto	l1539
   700   002644                     u1080:
   701   002644                     
   702                           ;main.c: 184:                 uint8_t pattern = segmentPatterns[countB];
   703   002644  5044               	movf	_countB^0,w,c
   704   002646  0F19               	addlw	low _segmentPatterns
   705   002648  6E2C               	movwf	??_main^0,c
   706   00264A  0060  F0B3  FFF6   	movff	??_main,tblptrl
   707   002650                     	if	0	;There is only one active tblptr byte
   708   002650                     	endif
   709   002650                     	if	0	;tblptru may be non-zero
   710   002650                     	endif
   711   002650                     	if	0	;tblptru may be non-zero
   712   002650                     	endif
   713   002650  0008               	tblrd		*
   714   002652  006F FFD4  F031    	movff	tablat,main@pattern_237
   715   002658                     
   716                           ;main.c: 185:                 PORTD = pattern;
   717   002658  0060  F0C7  FFCD   	movff	main@pattern_237,16333	;volatile
   718   00265E                     l1539:
   719                           
   720                           ;main.c: 191:         _delay((unsigned long)((500)*(4000000/4000.0)));
   721   00265E  0E03               	movlw	3
   722   002660  6E2D               	movwf	(??_main+1)^0,c
   723   002662  0E8A               	movlw	138
   724   002664  6E2C               	movwf	??_main^0,c
   725   002666  0E56               	movlw	86
   726   002668                     u1207:
   727   002668  2EE8               	decfsz	wreg,f,c
   728   00266A  D7FE               	bra	u1207
   729   00266C  2E2C               	decfsz	??_main^0,f,c
   730   00266E  D7FC               	bra	u1207
   731   002670  2E2D               	decfsz	(??_main+1)^0,f,c
   732   002672  D7FA               	bra	u1207
   733   002674                     
   734                           ;main.c: 193:         if (countA > 3 || countB > 3) {
   735   002674  BE47               	btfsc	(_countA+1)^0,7,c
   736   002676  EF48  F013         	goto	u1090
   737   00267A  5047               	movf	(_countA+1)^0,w,c
   738   00267C  E107               	bnz	u1091
   739   00267E  0E04               	movlw	4
   740   002680  5C46               	subwf	_countA^0,w,c
   741   002682  B0D8               	btfsc	status,0,c
   742   002684  EF46  F013         	goto	u1091
   743   002688  EF48  F013         	goto	u1090
   744   00268C                     u1091:
   745   00268C  EF56  F013         	goto	l1545
   746   002690                     u1090:
   747   002690  BE45               	btfsc	(_countB+1)^0,7,c
   748   002692  EF54  F013         	goto	u1101
   749   002696  5045               	movf	(_countB+1)^0,w,c
   750   002698  E109               	bnz	u1100
   751   00269A  0E04               	movlw	4
   752   00269C  5C44               	subwf	_countB^0,w,c
   753   00269E  A0D8               	btfss	status,0,c
   754   0026A0  EF54  F013         	goto	u1101
   755   0026A4  EF56  F013         	goto	u1100
   756   0026A8                     u1101:
   757   0026A8  EF58  F013         	goto	l1547
   758   0026AC                     u1100:
   759   0026AC                     l1545:
   760                           
   761                           ;main.c: 194:             error();
   762   0026AC  ECED  F015         	call	_error	;wreg free
   763   0026B0                     l1547:
   764                           
   765                           ;main.c: 197:         if (countA == HCode && countB == LCode && vSwitch == 1) {
   766   0026B0  504E               	movf	_HCode^0,w,c
   767   0026B2  1846               	xorwf	_countA^0,w,c
   768   0026B4  E107               	bnz	u1111
   769   0026B6  504F               	movf	(_HCode+1)^0,w,c
   770   0026B8  1847               	xorwf	(_countA+1)^0,w,c
   771   0026BA  A4D8               	btfss	status,2,c
   772   0026BC  EF62  F013         	goto	u1111
   773   0026C0  EF64  F013         	goto	u1110
   774   0026C4                     u1111:
   775   0026C4  EF8E  F013         	goto	l1563
   776   0026C8                     u1110:
   777   0026C8  504C               	movf	_LCode^0,w,c
   778   0026CA  1844               	xorwf	_countB^0,w,c
   779   0026CC  E107               	bnz	u1121
   780   0026CE  504D               	movf	(_LCode+1)^0,w,c
   781   0026D0  1845               	xorwf	(_countB+1)^0,w,c
   782   0026D2  A4D8               	btfss	status,2,c
   783   0026D4  EF6E  F013         	goto	u1121
   784   0026D8  EF70  F013         	goto	u1120
   785   0026DC                     u1121:
   786   0026DC  EF8E  F013         	goto	l1563
   787   0026E0                     u1120:
   788   0026E0  0442               	decf	_vSwitch^0,w,c
   789   0026E2  1043               	iorwf	(_vSwitch+1)^0,w,c
   790   0026E4  A4D8               	btfss	status,2,c
   791   0026E6  EF77  F013         	goto	u1131
   792   0026EA  EF79  F013         	goto	u1130
   793   0026EE                     u1131:
   794   0026EE  EF8E  F013         	goto	l1563
   795   0026F2                     u1130:
   796   0026F2                     
   797                           ;main.c: 198:             PORTCbits.RC5 = 1;
   798   0026F2  8ACC               	bsf	204,5,c	;volatile
   799   0026F4                     
   800                           ;main.c: 199:             _delay((unsigned long)((2000)*(4000000/4000.0)));
   801   0026F4  0E0B               	movlw	11
   802   0026F6  6E2D               	movwf	(??_main+1)^0,c
   803   0026F8  0E26               	movlw	38
   804   0026FA  6E2C               	movwf	??_main^0,c
   805   0026FC  0E5E               	movlw	94
   806   0026FE                     u1217:
   807   0026FE  2EE8               	decfsz	wreg,f,c
   808   002700  D7FE               	bra	u1217
   809   002702  2E2C               	decfsz	??_main^0,f,c
   810   002704  D7FC               	bra	u1217
   811   002706  2E2D               	decfsz	(??_main+1)^0,f,c
   812   002708  D7FA               	bra	u1217
   813   00270A                     
   814                           ;main.c: 200:             PORTCbits.RC5 = 0;
   815   00270A  9ACC               	bcf	204,5,c	;volatile
   816   00270C                     
   817                           ;main.c: 201:             countA = 0;
   818   00270C  0E00               	movlw	0
   819   00270E  6E47               	movwf	(_countA+1)^0,c
   820   002710  0E00               	movlw	0
   821   002712  6E46               	movwf	_countA^0,c
   822   002714                     
   823                           ;main.c: 202:             countB = 0;
   824   002714  0E00               	movlw	0
   825   002716  6E45               	movwf	(_countB+1)^0,c
   826   002718  0E00               	movlw	0
   827   00271A  6E44               	movwf	_countB^0,c
   828   00271C                     l1563:
   829                           
   830                           ;main.c: 205:         if (vSwitch == 1 && countA != HCode && countB != LCode) {
   831   00271C  0442               	decf	_vSwitch^0,w,c
   832   00271E  1043               	iorwf	(_vSwitch+1)^0,w,c
   833   002720  A4D8               	btfss	status,2,c
   834   002722  EF95  F013         	goto	u1141
   835   002726  EF97  F013         	goto	u1140
   836   00272A                     u1141:
   837   00272A  EF3B  F012         	goto	l1459
   838   00272E                     u1140:
   839   00272E  504E               	movf	_HCode^0,w,c
   840   002730  1846               	xorwf	_countA^0,w,c
   841   002732  E109               	bnz	u1150
   842   002734  504F               	movf	(_HCode+1)^0,w,c
   843   002736  1847               	xorwf	(_countA+1)^0,w,c
   844   002738  B4D8               	btfsc	status,2,c
   845   00273A  EFA1  F013         	goto	u1151
   846   00273E  EFA3  F013         	goto	u1150
   847   002742                     u1151:
   848   002742  EF3B  F012         	goto	l1459
   849   002746                     u1150:
   850   002746  504C               	movf	_LCode^0,w,c
   851   002748  1844               	xorwf	_countB^0,w,c
   852   00274A  E109               	bnz	u1160
   853   00274C  504D               	movf	(_LCode+1)^0,w,c
   854   00274E  1845               	xorwf	(_countB+1)^0,w,c
   855   002750  B4D8               	btfsc	status,2,c
   856   002752  EFAD  F013         	goto	u1161
   857   002756  EFAF  F013         	goto	u1160
   858   00275A                     u1161:
   859   00275A  EF3B  F012         	goto	l1459
   860   00275E                     u1160:
   861   00275E                     
   862                           ;main.c: 206:             error();
   863   00275E  ECED  F015         	call	_error	;wreg free
   864   002762  EF3B  F012         	goto	l1459
   865   002766  EFFE  F0FF         	goto	start
   866   00276A                     __end_of_main:
   867                           	callstack 0
   868                           
   869 ;; *************** function _setupPorts *****************
   870 ;; Defined at:
   871 ;;		line 244 in file "main.c"
   872 ;; Parameters:    Size  Location     Type
   873 ;;		None
   874 ;; Auto vars:     Size  Location     Type
   875 ;;		None
   876 ;; Return value:  Size  Location     Type
   877 ;;                  1    wreg      void 
   878 ;; Registers used:
   879 ;;		wreg, status,2
   880 ;; Tracked objects:
   881 ;;		On entry : 0/0
   882 ;;		On exit  : 0/0
   883 ;;		Unchanged: 0/0
   884 ;; Data sizes:     COMRAM   BANK0   BANK1   BANK2   BANK3   BANK4   BANK5   BANK6   BANK7   BANK8   BANK9  BANK10  BANK1
      +1  BANK12  BANK13  BANK14  BANK15  BANK16  BANK17  BANK18  BANK19  BANK20  BANK21  BANK22  BANK23  BANK24  BANK25  BANK2
      +6  BANK27  BANK28  BANK29  BANK30  BANK31
   885 ;;      Params:         0       0       0       0       0       0       0       0       0       0       0       0       
      +0       0       0       0       0       0       0       0       0       0       0       0       0       0       0       
      +0       0       0       0       0       0
   886 ;;      Locals:         0       0       0       0       0       0       0       0       0       0       0       0       
      +0       0       0       0       0       0       0       0       0       0       0       0       0       0       0       
      +0       0       0       0       0       0
   887 ;;      Temps:          0       0       0       0       0       0       0       0       0       0       0       0       
      +0       0       0       0       0       0       0       0       0       0       0       0       0       0       0       
      +0       0       0       0       0       0
   888 ;;      Totals:         0       0       0       0       0       0       0       0       0       0       0       0       
      +0       0       0       0       0       0       0       0       0       0       0       0       0       0       0       
      +0       0       0       0       0       0
   889 ;;Total ram usage:        0 bytes
   890 ;; Hardware stack levels used: 1
   891 ;; This function calls:
   892 ;;		Nothing
   893 ;; This function is called by:
   894 ;;		_main
   895 ;; This function uses a non-reentrant model
   896 ;;
   897                           
   898                           	psect	text1
   899   002C54                     __ptext1:
   900                           	callstack 0
   901   002C54                     _setupPorts:
   902                           	callstack 30
   903   002C54                     
   904                           ;main.c: 248:     TRISD = 0x00;
   905   002C54  0E00               	movlw	0
   906   002C56  6EC5               	movwf	197,c	;volatile
   907                           
   908                           ;main.c: 249:     ANSELD = 0x00;
   909   002C58  0E00               	movlw	0
   910   002C5A  013A               	movlb	58	; () banked
   911   002C5C  6F70               	movwf	112,b	;volatile
   912                           
   913                           ;main.c: 250:     PORTD = 0x00;
   914   002C5E  0E00               	movlw	0
   915   002C60  6ECD               	movwf	205,c	;volatile
   916                           
   917                           ;main.c: 252:     TRISC = 0b00010000;
   918   002C62  0E10               	movlw	16
   919   002C64  6EC4               	movwf	196,c	;volatile
   920                           
   921                           ;main.c: 253:     ANSELC = 0x00;
   922   002C66  0E00               	movlw	0
   923   002C68  6F60               	movwf	96,b	;volatile
   924                           
   925                           ;main.c: 254:     PORTC = 0x0C;
   926   002C6A  0E0C               	movlw	12
   927   002C6C  6ECC               	movwf	204,c	;volatile
   928                           
   929                           ;main.c: 256:     TRISA = 0x03;
   930   002C6E  0E03               	movlw	3
   931   002C70  6EC2               	movwf	194,c	;volatile
   932                           
   933                           ;main.c: 258:     TRISB = 0x0F;
   934   002C72  0E0F               	movlw	15
   935   002C74  6EC3               	movwf	195,c	;volatile
   936                           
   937                           ;main.c: 259:     ANSELB = 0x00;
   938   002C76  0E00               	movlw	0
   939   002C78  6F50               	movwf	80,b	;volatile
   940                           
   941                           ;main.c: 260:     PORTB = 0x00;
   942   002C7A  0E00               	movlw	0
   943   002C7C  6ECB               	movwf	203,c	;volatile
   944   002C7E                     
   945                           ; BSR set to: 58
   946                           ;main.c: 262:     PORTCbits.RC5 = 0;
   947   002C7E  9ACC               	bcf	204,5,c	;volatile
   948                           
   949                           ;main.c: 265:     ADCON0bits.FM = 1;
   950   002C80  013E               	movlb	62	; () banked
   951   002C82  51F8               	movf	248,w,b	;volatile
   952   002C84  0BF3               	andlw	-13
   953   002C86  0904               	iorlw	4
   954   002C88  6FF8               	movwf	248,b	;volatile
   955   002C8A                     
   956                           ; BSR set to: 62
   957                           ;main.c: 266:     ADCON0bits.CS = 1;
   958   002C8A  89F8               	bsf	248,4,b	;volatile
   959   002C8C                     
   960                           ; BSR set to: 62
   961                           ;main.c: 268:     TRISAbits.TRISA3 = 1;
   962   002C8C  86C2               	bsf	194,3,c	;volatile
   963   002C8E                     
   964                           ; BSR set to: 62
   965                           ;main.c: 269:     TRISAbits.TRISA4 = 1;
   966   002C8E  88C2               	bsf	194,4,c	;volatile
   967   002C90                     
   968                           ; BSR set to: 62
   969                           ;main.c: 270:     TRISAbits.TRISA5 = 1;
   970   002C90  8AC2               	bsf	194,5,c	;volatile
   971   002C92                     
   972                           ; BSR set to: 62
   973                           ;main.c: 272:     ANSELAbits.ANSELA3 = 1;
   974   002C92  013A               	movlb	58	; () banked
   975   002C94  8740               	bsf	64,3,b	;volatile
   976   002C96                     
   977                           ; BSR set to: 58
   978                           ;main.c: 273:     ANSELAbits.ANSELA4 = 1;
   979   002C96  8940               	bsf	64,4,b	;volatile
   980   002C98                     
   981                           ; BSR set to: 58
   982                           ;main.c: 274:     ANSELAbits.ANSELA5 = 1;
   983   002C98  8B40               	bsf	64,5,b	;volatile
   984                           
   985                           ;main.c: 276:     ADPCH = 0x03;
   986   002C9A  0E03               	movlw	3
   987   002C9C  013E               	movlb	62	; () banked
   988   002C9E  6FF1               	movwf	241,b	;volatile
   989                           
   990                           ;main.c: 277:     ADCLK = 0x00;
   991   002CA0  0E00               	movlw	0
   992   002CA2  6FFF               	movwf	255,b	;volatile
   993                           
   994                           ;main.c: 279:     ADRESH = 0x00;
   995   002CA4  0E00               	movlw	0
   996   002CA6  6FF0               	movwf	240,b	;volatile
   997                           
   998                           ;main.c: 280:     ADRESL = 0x00;
   999   002CA8  0E00               	movlw	0
  1000   002CAA  6FEF               	movwf	239,b	;volatile
  1001                           
  1002                           ;main.c: 282:     ADPREL = 0x00;
  1003   002CAC  0E00               	movlw	0
  1004   002CAE  6FF6               	movwf	246,b	;volatile
  1005                           
  1006                           ;main.c: 283:     ADPREH = 0x00;
  1007   002CB0  0E00               	movlw	0
  1008   002CB2  6FF7               	movwf	247,b	;volatile
  1009                           
  1010                           ;main.c: 285:     ADACQL = 0x00;
  1011   002CB4  0E00               	movlw	0
  1012   002CB6  6FF3               	movwf	243,b	;volatile
  1013                           
  1014                           ;main.c: 286:     ADACQH = 0x00;
  1015   002CB8  0E00               	movlw	0
  1016   002CBA  6FF4               	movwf	244,b	;volatile
  1017   002CBC                     
  1018                           ; BSR set to: 62
  1019                           ;main.c: 288:     ADCON0bits.ON = 1;
  1020   002CBC  8FF8               	bsf	248,7,b	;volatile
  1021   002CBE                     
  1022                           ; BSR set to: 62
  1023   002CBE  0012               	return		;funcret
  1024   002CC0                     __end_of_setupPorts:
  1025                           	callstack 0
  1026                           
  1027 ;; *************** function _scanKeypad *****************
  1028 ;; Defined at:
  1029 ;;		line 292 in file "main.c"
  1030 ;; Parameters:    Size  Location     Type
  1031 ;;		None
  1032 ;; Auto vars:     Size  Location     Type
  1033 ;;  pressedKey      2    0        int 
  1034 ;;  row             2   26[COMRAM] int 
  1035 ;;  col             2   28[COMRAM] int 
  1036 ;;  keypadLayout   24    2[COMRAM] const int [3][4]
  1037 ;; Return value:  Size  Location     Type
  1038 ;;                  1    wreg      void 
  1039 ;; Registers used:
  1040 ;;		wreg, fsr2l, fsr2h, status,2, status,0, tblptrl, tblptrh, tblptru, prodl, prodh
  1041 ;; Tracked objects:
  1042 ;;		On entry : 0/0
  1043 ;;		On exit  : 0/0
  1044 ;;		Unchanged: 0/0
  1045 ;; Data sizes:     COMRAM   BANK0   BANK1   BANK2   BANK3   BANK4   BANK5   BANK6   BANK7   BANK8   BANK9  BANK10  BANK1
      +1  BANK12  BANK13  BANK14  BANK15  BANK16  BANK17  BANK18  BANK19  BANK20  BANK21  BANK22  BANK23  BANK24  BANK25  BANK2
      +6  BANK27  BANK28  BANK29  BANK30  BANK31
  1046 ;;      Params:         0       0       0       0       0       0       0       0       0       0       0       0       
      +0       0       0       0       0       0       0       0       0       0       0       0       0       0       0       
      +0       0       0       0       0       0
  1047 ;;      Locals:        28       0       0       0       0       0       0       0       0       0       0       0       
      +0       0       0       0       0       0       0       0       0       0       0       0       0       0       0       
      +0       0       0       0       0       0
  1048 ;;      Temps:          2       0       0       0       0       0       0       0       0       0       0       0       
      +0       0       0       0       0       0       0       0       0       0       0       0       0       0       0       
      +0       0       0       0       0       0
  1049 ;;      Totals:        30       0       0       0       0       0       0       0       0       0       0       0       
      +0       0       0       0       0       0       0       0       0       0       0       0       0       0       0       
      +0       0       0       0       0       0
  1050 ;;Total ram usage:       30 bytes
  1051 ;; Hardware stack levels used: 1
  1052 ;; This function calls:
  1053 ;;		Nothing
  1054 ;; This function is called by:
  1055 ;;		_main
  1056 ;; This function uses a non-reentrant model
  1057 ;;
  1058                           
  1059                           	psect	text2
  1060   002B04                     __ptext2:
  1061                           	callstack 0
  1062   002B04                     _scanKeypad:
  1063                           	callstack 30
  1064   002B04                     
  1065                           ;main.c: 293:     const int keypadLayout[4][3] = {
  1066   002B04  0E01               	movlw	low scanKeypad@F16536
  1067   002B06  6EF6               	movwf	tblptrl,c
  1068   002B08                     	if	0	;There is only one active tblptr byte
  1069   002B08                     	endif
  1070   002B08                     	if	0	;There are less than 3 active tblptr bytes
  1071   002B08                     	endif
  1072   002B08  EE20  F003         	lfsr	2,scanKeypad@keypadLayout
  1073   002B0C  0E17               	movlw	23
  1074   002B0E                     u370:
  1075   002B0E  0009               	tblrd		*+
  1076   002B10  006F FFD7 FFDE     	movff	tablat,postinc2
  1077   002B16  06E8               	decf	wreg,f,c
  1078   002B18  E2FA               	bc	u370
  1079   002B1A                     
  1080                           ;main.c: 301:     TRISB = 0x07;
  1081   002B1A  0E07               	movlw	7
  1082   002B1C  6EC3               	movwf	195,c	;volatile
  1083   002B1E                     
  1084                           ;main.c: 302:     TRISA = 0x0F;
  1085   002B1E  0E0F               	movlw	15
  1086   002B20  6EC2               	movwf	194,c	;volatile
  1087   002B22                     
  1088                           ;main.c: 303:     PORTB = 0x00;
  1089   002B22  0E00               	movlw	0
  1090   002B24  6ECB               	movwf	203,c	;volatile
  1091   002B26                     
  1092                           ;main.c: 306:     for (int col = 0; col < 3; col++) {
  1093   002B26  0E00               	movlw	0
  1094   002B28  6E1E               	movwf	(scanKeypad@col+1)^0,c
  1095   002B2A  0E00               	movlw	0
  1096   002B2C  6E1D               	movwf	scanKeypad@col^0,c
  1097   002B2E                     l1067:
  1098   002B2E  BE1E               	btfsc	(scanKeypad@col+1)^0,7,c
  1099   002B30  EFA3  F015         	goto	u381
  1100   002B34  501E               	movf	(scanKeypad@col+1)^0,w,c
  1101   002B36  E109               	bnz	u380
  1102   002B38  0E03               	movlw	3
  1103   002B3A  5C1D               	subwf	scanKeypad@col^0,w,c
  1104   002B3C  A0D8               	btfss	status,0,c
  1105   002B3E  EFA3  F015         	goto	u381
  1106   002B42  EFA5  F015         	goto	u380
  1107   002B46                     u381:
  1108   002B46  EFA7  F015         	goto	l1071
  1109   002B4A                     u380:
  1110   002B4A  EFEC  F015         	goto	l137
  1111   002B4E                     l1071:
  1112                           
  1113                           ;main.c: 307:         PORTB = (0b00001000 << col);
  1114   002B4E  C01D  F001         	movff	scanKeypad@col,??_scanKeypad
  1115   002B52  0E08               	movlw	8
  1116   002B54  6E02               	movwf	(??_scanKeypad+1)^0,c
  1117   002B56  2A01               	incf	??_scanKeypad^0,f,c
  1118   002B58  EFB0  F015         	goto	u394
  1119   002B5C                     u395:
  1120   002B5C  90D8               	bcf	status,0,c
  1121   002B5E  3602               	rlcf	(??_scanKeypad+1)^0,f,c
  1122   002B60                     u394:
  1123   002B60  2E01               	decfsz	??_scanKeypad^0,f,c
  1124   002B62  EFAE  F015         	goto	u395
  1125   002B66  5002               	movf	(??_scanKeypad+1)^0,w,c
  1126   002B68  6ECB               	movwf	203,c	;volatile
  1127   002B6A                     
  1128                           ;main.c: 308:         _delay((unsigned long)((5)*(4000000/4000.0)));
  1129   002B6A  0E07               	movlw	7
  1130   002B6C  6E01               	movwf	??_scanKeypad^0,c
  1131   002B6E  0E7D               	movlw	125
  1132   002B70                     u1227:
  1133   002B70  2EE8               	decfsz	wreg,f,c
  1134   002B72  D7FE               	bra	u1227
  1135   002B74  2E01               	decfsz	??_scanKeypad^0,f,c
  1136   002B76  D7FC               	bra	u1227
  1137   002B78  0000               	nop	
  1138   002B7A                     
  1139                           ;main.c: 311:         for (int row = 0; row < 4; row++) {
  1140   002B7A  0E00               	movlw	0
  1141   002B7C  6E1C               	movwf	(scanKeypad@row+1)^0,c
  1142   002B7E  0E00               	movlw	0
  1143   002B80  6E1B               	movwf	scanKeypad@row^0,c
  1144   002B82                     l133:
  1145                           
  1146                           ;main.c: 312:             if (PORTBbits.RB0 == 0 && PORTBbits.RB1 == 0 && PORTBbits.RB2 
      +                          == 0) {
  1147   002B82  B0CB               	btfsc	203,0,c	;volatile
  1148   002B84  EFC6  F015         	goto	u401
  1149   002B88  EFC8  F015         	goto	u400
  1150   002B8C                     u401:
  1151   002B8C  EFD8  F015         	goto	l1087
  1152   002B90                     u400:
  1153   002B90  B2CB               	btfsc	203,1,c	;volatile
  1154   002B92  EFCD  F015         	goto	u411
  1155   002B96  EFCF  F015         	goto	u410
  1156   002B9A                     u411:
  1157   002B9A  EFD8  F015         	goto	l1087
  1158   002B9E                     u410:
  1159   002B9E  B4CB               	btfsc	203,2,c	;volatile
  1160   002BA0  EFD4  F015         	goto	u421
  1161   002BA4  EFD6  F015         	goto	u420
  1162   002BA8                     u421:
  1163   002BA8  EFD8  F015         	goto	l1087
  1164   002BAC                     u420:
  1165   002BAC  EFD8  F015         	goto	l1089
  1166   002BB0                     l1087:
  1167   002BB0                     l1089:
  1168   002BB0  4A1B               	infsnz	scanKeypad@row^0,f,c
  1169   002BB2  2A1C               	incf	(scanKeypad@row+1)^0,f,c
  1170   002BB4  BE1C               	btfsc	(scanKeypad@row+1)^0,7,c
  1171   002BB6  EFE6  F015         	goto	u431
  1172   002BBA  501C               	movf	(scanKeypad@row+1)^0,w,c
  1173   002BBC  E109               	bnz	u430
  1174   002BBE  0E04               	movlw	4
  1175   002BC0  5C1B               	subwf	scanKeypad@row^0,w,c
  1176   002BC2  A0D8               	btfss	status,0,c
  1177   002BC4  EFE6  F015         	goto	u431
  1178   002BC8  EFE8  F015         	goto	u430
  1179   002BCC                     u431:
  1180   002BCC  EFC1  F015         	goto	l133
  1181   002BD0                     u430:
  1182   002BD0                     
  1183                           ;main.c: 322:     }
  1184   002BD0  4A1D               	infsnz	scanKeypad@col^0,f,c
  1185   002BD2  2A1E               	incf	(scanKeypad@col+1)^0,f,c
  1186   002BD4  EF97  F015         	goto	l1067
  1187   002BD8                     l137:
  1188   002BD8  0012               	return		;funcret
  1189   002BDA                     __end_of_scanKeypad:
  1190                           	callstack 0
  1191                           
  1192 ;; *************** function _error *****************
  1193 ;; Defined at:
  1194 ;;		line 214 in file "main.c"
  1195 ;; Parameters:    Size  Location     Type
  1196 ;;		None
  1197 ;; Auto vars:     Size  Location     Type
  1198 ;;  i               2    2[COMRAM] int 
  1199 ;; Return value:  Size  Location     Type
  1200 ;;                  1    wreg      void 
  1201 ;; Registers used:
  1202 ;;		wreg, status,2, status,0, tblptrl, tblptrh, tblptru
  1203 ;; Tracked objects:
  1204 ;;		On entry : 0/0
  1205 ;;		On exit  : 0/0
  1206 ;;		Unchanged: 0/0
  1207 ;; Data sizes:     COMRAM   BANK0   BANK1   BANK2   BANK3   BANK4   BANK5   BANK6   BANK7   BANK8   BANK9  BANK10  BANK1
      +1  BANK12  BANK13  BANK14  BANK15  BANK16  BANK17  BANK18  BANK19  BANK20  BANK21  BANK22  BANK23  BANK24  BANK25  BANK2
      +6  BANK27  BANK28  BANK29  BANK30  BANK31
  1208 ;;      Params:         0       0       0       0       0       0       0       0       0       0       0       0       
      +0       0       0       0       0       0       0       0       0       0       0       0       0       0       0       
      +0       0       0       0       0       0
  1209 ;;      Locals:         2       0       0       0       0       0       0       0       0       0       0       0       
      +0       0       0       0       0       0       0       0       0       0       0       0       0       0       0       
      +0       0       0       0       0       0
  1210 ;;      Temps:          2       0       0       0       0       0       0       0       0       0       0       0       
      +0       0       0       0       0       0       0       0       0       0       0       0       0       0       0       
      +0       0       0       0       0       0
  1211 ;;      Totals:         4       0       0       0       0       0       0       0       0       0       0       0       
      +0       0       0       0       0       0       0       0       0       0       0       0       0       0       0       
      +0       0       0       0       0       0
  1212 ;;Total ram usage:        4 bytes
  1213 ;; Hardware stack levels used: 1
  1214 ;; This function calls:
  1215 ;;		Nothing
  1216 ;; This function is called by:
  1217 ;;		_main
  1218 ;; This function uses a non-reentrant model
  1219 ;;
  1220                           
  1221                           	psect	text3
  1222   002BDA                     __ptext3:
  1223                           	callstack 0
  1224   002BDA                     _error:
  1225                           	callstack 30
  1226   002BDA                     
  1227                           ;main.c: 215:     PORTD = segmentPatterns[0];
  1228   002BDA  0E19               	movlw	low _segmentPatterns
  1229   002BDC  6EF6               	movwf	tblptrl,c
  1230   002BDE                     	if	0	;There is only one active tblptr byte
  1231   002BDE                     	endif
  1232   002BDE                     	if	0	;There are less than 3 active tblptr bytes
  1233   002BDE                     	endif
  1234   002BDE  0008               	tblrd		*
  1235   002BE0  006F FFD7 FFCD     	movff	tablat,16333	;volatile
  1236   002BE6                     
  1237                           ;main.c: 216:     for (int i = 0; i < 4; ++i) {
  1238   002BE6  0E00               	movlw	0
  1239   002BE8  6E04               	movwf	(error@i+1)^0,c
  1240   002BEA  0E00               	movlw	0
  1241   002BEC  6E03               	movwf	error@i^0,c
  1242   002BEE                     l1105:
  1243                           
  1244                           ;main.c: 217:         PORTC = 0x08;
  1245   002BEE  0E08               	movlw	8
  1246   002BF0  6ECC               	movwf	204,c	;volatile
  1247   002BF2                     
  1248                           ;main.c: 218:         _delay((unsigned long)((500)*(4000000/4000.0)));
  1249   002BF2  0E03               	movlw	3
  1250   002BF4  6E02               	movwf	(??_error+1)^0,c
  1251   002BF6  0E8A               	movlw	138
  1252   002BF8  6E01               	movwf	??_error^0,c
  1253   002BFA  0E56               	movlw	86
  1254   002BFC                     u1237:
  1255   002BFC  2EE8               	decfsz	wreg,f,c
  1256   002BFE  D7FE               	bra	u1237
  1257   002C00  2E01               	decfsz	??_error^0,f,c
  1258   002C02  D7FC               	bra	u1237
  1259   002C04  2E02               	decfsz	(??_error+1)^0,f,c
  1260   002C06  D7FA               	bra	u1237
  1261   002C08                     
  1262                           ;main.c: 219:         PORTC = 0x00;
  1263   002C08  0E00               	movlw	0
  1264   002C0A  6ECC               	movwf	204,c	;volatile
  1265                           
  1266                           ;main.c: 220:         _delay((unsigned long)((500)*(4000000/4000.0)));
  1267   002C0C  0E03               	movlw	3
  1268   002C0E  6E02               	movwf	(??_error+1)^0,c
  1269   002C10  0E8A               	movlw	138
  1270   002C12  6E01               	movwf	??_error^0,c
  1271   002C14  0E56               	movlw	86
  1272   002C16                     u1247:
  1273   002C16  2EE8               	decfsz	wreg,f,c
  1274   002C18  D7FE               	bra	u1247
  1275   002C1A  2E01               	decfsz	??_error^0,f,c
  1276   002C1C  D7FC               	bra	u1247
  1277   002C1E  2E02               	decfsz	(??_error+1)^0,f,c
  1278   002C20  D7FA               	bra	u1247
  1279   002C22                     
  1280                           ;main.c: 221:             }
  1281   002C22  4A03               	infsnz	error@i^0,f,c
  1282   002C24  2A04               	incf	(error@i+1)^0,f,c
  1283   002C26  BE04               	btfsc	(error@i+1)^0,7,c
  1284   002C28  EF1F  F016         	goto	u441
  1285   002C2C  5004               	movf	(error@i+1)^0,w,c
  1286   002C2E  E109               	bnz	u440
  1287   002C30  0E04               	movlw	4
  1288   002C32  5C03               	subwf	error@i^0,w,c
  1289   002C34  A0D8               	btfss	status,0,c
  1290   002C36  EF1F  F016         	goto	u441
  1291   002C3A  EF21  F016         	goto	u440
  1292   002C3E                     u441:
  1293   002C3E  EFF7  F015         	goto	l1105
  1294   002C42                     u440:
  1295   002C42                     
  1296                           ;main.c: 222:     countA = 0;
  1297   002C42  0E00               	movlw	0
  1298   002C44  6E47               	movwf	(_countA+1)^0,c
  1299   002C46  0E00               	movlw	0
  1300   002C48  6E46               	movwf	_countA^0,c
  1301                           
  1302                           ;main.c: 223:     countB = 0;
  1303   002C4A  0E00               	movlw	0
  1304   002C4C  6E45               	movwf	(_countB+1)^0,c
  1305   002C4E  0E00               	movlw	0
  1306   002C50  6E44               	movwf	_countB^0,c
  1307   002C52  0012               	return		;funcret
  1308   002C54                     __end_of_error:
  1309                           	callstack 0
  1310                           
  1311 ;; *************** function _conv *****************
  1312 ;; Defined at:
  1313 ;;		line 226 in file "main.c"
  1314 ;; Parameters:    Size  Location     Type
  1315 ;;		None
  1316 ;; Auto vars:     Size  Location     Type
  1317 ;;		None
  1318 ;; Return value:  Size  Location     Type
  1319 ;;                  2   39[COMRAM] int 
  1320 ;; Registers used:
  1321 ;;		wreg, status,2, status,0, prodl, prodh, cstack
  1322 ;; Tracked objects:
  1323 ;;		On entry : 0/0
  1324 ;;		On exit  : 0/0
  1325 ;;		Unchanged: 0/0
  1326 ;; Data sizes:     COMRAM   BANK0   BANK1   BANK2   BANK3   BANK4   BANK5   BANK6   BANK7   BANK8   BANK9  BANK10  BANK1
      +1  BANK12  BANK13  BANK14  BANK15  BANK16  BANK17  BANK18  BANK19  BANK20  BANK21  BANK22  BANK23  BANK24  BANK25  BANK2
      +6  BANK27  BANK28  BANK29  BANK30  BANK31
  1327 ;;      Params:         2       0       0       0       0       0       0       0       0       0       0       0       
      +0       0       0       0       0       0       0       0       0       0       0       0       0       0       0       
      +0       0       0       0       0       0
  1328 ;;      Locals:         0       0       0       0       0       0       0       0       0       0       0       0       
      +0       0       0       0       0       0       0       0       0       0       0       0       0       0       0       
      +0       0       0       0       0       0
  1329 ;;      Temps:          2       0       0       0       0       0       0       0       0       0       0       0       
      +0       0       0       0       0       0       0       0       0       0       0       0       0       0       0       
      +0       0       0       0       0       0
  1330 ;;      Totals:         4       0       0       0       0       0       0       0       0       0       0       0       
      +0       0       0       0       0       0       0       0       0       0       0       0       0       0       0       
      +0       0       0       0       0       0
  1331 ;;Total ram usage:        4 bytes
  1332 ;; Hardware stack levels used: 1
  1333 ;; Hardware stack levels required when called: 1
  1334 ;; This function calls:
  1335 ;;		___flge
  1336 ;;		___flmul
  1337 ;;		___xxtofl
  1338 ;; This function is called by:
  1339 ;;		_main
  1340 ;; This function uses a non-reentrant model
  1341 ;;
  1342                           
  1343                           	psect	text4
  1344   002A22                     __ptext4:
  1345                           	callstack 0
  1346   002A22                     _conv:
  1347                           	callstack 29
  1348   002A22                     
  1349                           ;main.c: 227:     ADCON0bits.GO = 1;
  1350   002A22  013E               	movlb	62	; () banked
  1351   002A24  81F8               	bsf	248,0,b	;volatile
  1352   002A26                     l116:
  1353                           
  1354                           ; BSR set to: 62
  1355   002A26  B1F8               	btfsc	248,0,b	;volatile
  1356   002A28  EF18  F015         	goto	u971
  1357   002A2C  EF1A  F015         	goto	u970
  1358   002A30                     u971:
  1359   002A30  EF13  F015         	goto	l116
  1360   002A34                     u970:
  1361   002A34                     
  1362                           ; BSR set to: 62
  1363                           ;main.c: 229:     digital = (ADRESH*256) | (ADRESL);
  1364   002A34  51EF               	movf	239,w,b	;volatile
  1365   002A36  006F FBC0  F02A    	movff	16112,??_conv	;volatile
  1366   002A3C  6A2B               	clrf	(??_conv+1)^0,c
  1367   002A3E  C02A  F02B         	movff	??_conv,??_conv+1
  1368   002A42  6A2A               	clrf	??_conv^0,c
  1369   002A44  102A               	iorwf	??_conv^0,w,c
  1370   002A46  6E48               	movwf	_digital^0,c
  1371   002A48  502B               	movf	(??_conv+1)^0,w,c
  1372   002A4A  6E49               	movwf	(_digital+1)^0,c
  1373   002A4C                     
  1374                           ; BSR set to: 62
  1375                           ;main.c: 230:     voltage= digital*((float)5.0/(float)(4096));
  1376   002A4C  C048  F001         	movff	_digital,___xxtofl@val
  1377   002A50  C049  F002         	movff	_digital+1,___xxtofl@val+1
  1378   002A54  0E00               	movlw	0
  1379   002A56  BE02               	btfsc	(___xxtofl@val+1)^0,7,c
  1380   002A58  0EFF               	movlw	-1
  1381   002A5A  6E03               	movwf	(___xxtofl@val+2)^0,c
  1382   002A5C  6E04               	movwf	(___xxtofl@val+3)^0,c
  1383   002A5E  0E01               	movlw	1
  1384   002A60  ECB5  F013         	call	___xxtofl
  1385   002A64  C001  F00F         	movff	?___xxtofl,___flmul@b
  1386   002A68  C002  F010         	movff	?___xxtofl+1,___flmul@b+1
  1387   002A6C  C003  F011         	movff	?___xxtofl+2,___flmul@b+2
  1388   002A70  C004  F012         	movff	?___xxtofl+3,___flmul@b+3
  1389   002A74  0E00               	movlw	0
  1390   002A76  6E13               	movwf	___flmul@a^0,c
  1391   002A78  0E00               	movlw	0
  1392   002A7A  6E14               	movwf	(___flmul@a+1)^0,c
  1393   002A7C  0EA0               	movlw	160
  1394   002A7E  6E15               	movwf	(___flmul@a+2)^0,c
  1395   002A80  0E3A               	movlw	58
  1396   002A82  6E16               	movwf	(___flmul@a+3)^0,c
  1397   002A84  EC12  F010         	call	___flmul	;wreg free
  1398   002A88  C00F  F03C         	movff	?___flmul,_voltage
  1399   002A8C  C010  F03D         	movff	?___flmul+1,_voltage+1
  1400   002A90  C011  F03E         	movff	?___flmul+2,_voltage+2
  1401   002A94  C012  F03F         	movff	?___flmul+3,_voltage+3
  1402   002A98                     
  1403                           ;main.c: 232:     if (voltage > 0.200) {
  1404   002A98  0ECD               	movlw	205
  1405   002A9A  6E01               	movwf	___flge@ff1^0,c
  1406   002A9C  0ECC               	movlw	204
  1407   002A9E  6E02               	movwf	(___flge@ff1+1)^0,c
  1408   002AA0  0E4C               	movlw	76
  1409   002AA2  6E03               	movwf	(___flge@ff1+2)^0,c
  1410   002AA4  0E3E               	movlw	62
  1411   002AA6  6E04               	movwf	(___flge@ff1+3)^0,c
  1412   002AA8  C03C  F005         	movff	_voltage,___flge@ff2
  1413   002AAC  C03D  F006         	movff	_voltage+1,___flge@ff2+1
  1414   002AB0  C03E  F007         	movff	_voltage+2,___flge@ff2+2
  1415   002AB4  C03F  F008         	movff	_voltage+3,___flge@ff2+3
  1416   002AB8  EC8F  F014         	call	___flge	;wreg free
  1417   002ABC  B0D8               	btfsc	status,0,c
  1418   002ABE  EF63  F015         	goto	u981
  1419   002AC2  EF65  F015         	goto	u980
  1420   002AC6                     u981:
  1421   002AC6  EF6B  F015         	goto	l1443
  1422   002ACA                     u980:
  1423   002ACA                     
  1424                           ;main.c: 233:         return 0;
  1425   002ACA  0E00               	movlw	0
  1426   002ACC  6E29               	movwf	(?_conv+1)^0,c
  1427   002ACE  0E00               	movlw	0
  1428   002AD0  6E28               	movwf	?_conv^0,c
  1429   002AD2  EF81  F015         	goto	l120
  1430   002AD6                     l1443:
  1431   002AD6  0E00               	movlw	0
  1432   002AD8  6E01               	movwf	___flge@ff1^0,c
  1433   002ADA  0E00               	movlw	0
  1434   002ADC  6E02               	movwf	(___flge@ff1+1)^0,c
  1435   002ADE  0E40               	movlw	64
  1436   002AE0  6E03               	movwf	(___flge@ff1+2)^0,c
  1437   002AE2  0E40               	movlw	64
  1438   002AE4  6E04               	movwf	(___flge@ff1+3)^0,c
  1439   002AE6  C03C  F005         	movff	_voltage,___flge@ff2
  1440   002AEA  C03D  F006         	movff	_voltage+1,___flge@ff2+1
  1441   002AEE  C03E  F007         	movff	_voltage+2,___flge@ff2+2
  1442   002AF2  C03F  F008         	movff	_voltage+3,___flge@ff2+3
  1443   002AF6  EC8F  F014         	call	___flge	;wreg free
  1444   002AFA                     
  1445                           ;main.c: 236:         return 1;
  1446   002AFA  0E00               	movlw	0
  1447   002AFC  6E29               	movwf	(?_conv+1)^0,c
  1448   002AFE  0E01               	movlw	1
  1449   002B00  6E28               	movwf	?_conv^0,c
  1450   002B02                     l120:
  1451   002B02  0012               	return		;funcret
  1452   002B04                     __end_of_conv:
  1453                           	callstack 0
  1454                           
  1455 ;; *************** function ___xxtofl *****************
  1456 ;; Defined at:
  1457 ;;		line 10 in file "C:\Program Files\Microchip\xc8\v2.46\pic\sources\c99\common\xxtofl.c"
  1458 ;; Parameters:    Size  Location     Type
  1459 ;;  sign            1    wreg     unsigned char 
  1460 ;;  val             4    0[COMRAM] long 
  1461 ;; Auto vars:     Size  Location     Type
  1462 ;;  sign            1    8[COMRAM] unsigned char 
  1463 ;;  arg             4   10[COMRAM] unsigned long 
  1464 ;;  exp             1    9[COMRAM] unsigned char 
  1465 ;; Return value:  Size  Location     Type
  1466 ;;                  4    0[COMRAM] unsigned char 
  1467 ;; Registers used:
  1468 ;;		wreg, status,2, status,0
  1469 ;; Tracked objects:
  1470 ;;		On entry : 0/0
  1471 ;;		On exit  : 0/0
  1472 ;;		Unchanged: 0/0
  1473 ;; Data sizes:     COMRAM   BANK0   BANK1   BANK2   BANK3   BANK4   BANK5   BANK6   BANK7   BANK8   BANK9  BANK10  BANK1
      +1  BANK12  BANK13  BANK14  BANK15  BANK16  BANK17  BANK18  BANK19  BANK20  BANK21  BANK22  BANK23  BANK24  BANK25  BANK2
      +6  BANK27  BANK28  BANK29  BANK30  BANK31
  1474 ;;      Params:         4       0       0       0       0       0       0       0       0       0       0       0       
      +0       0       0       0       0       0       0       0       0       0       0       0       0       0       0       
      +0       0       0       0       0       0
  1475 ;;      Locals:         6       0       0       0       0       0       0       0       0       0       0       0       
      +0       0       0       0       0       0       0       0       0       0       0       0       0       0       0       
      +0       0       0       0       0       0
  1476 ;;      Temps:          4       0       0       0       0       0       0       0       0       0       0       0       
      +0       0       0       0       0       0       0       0       0       0       0       0       0       0       0       
      +0       0       0       0       0       0
  1477 ;;      Totals:        14       0       0       0       0       0       0       0       0       0       0       0       
      +0       0       0       0       0       0       0       0       0       0       0       0       0       0       0       
      +0       0       0       0       0       0
  1478 ;;Total ram usage:       14 bytes
  1479 ;; Hardware stack levels used: 1
  1480 ;; This function calls:
  1481 ;;		Nothing
  1482 ;; This function is called by:
  1483 ;;		_conv
  1484 ;; This function uses a non-reentrant model
  1485 ;;
  1486                           
  1487                           	psect	text5
  1488   00276A                     __ptext5:
  1489                           	callstack 0
  1490   00276A                     ___xxtofl:
  1491                           	callstack 29
  1492                           
  1493                           ;incstack = 0
  1494                           ;___xxtofl@sign stored from wreg
  1495   00276A  6E09               	movwf	___xxtofl@sign^0,c
  1496   00276C  5009               	movf	___xxtofl@sign^0,w,c
  1497   00276E  B4D8               	btfsc	status,2,c
  1498   002770  EFBC  F013         	goto	u871
  1499   002774  EFBE  F013         	goto	u870
  1500   002778                     u871:
  1501   002778  EFE0  F013         	goto	l795
  1502   00277C                     u870:
  1503   00277C  BE04               	btfsc	(___xxtofl@val+3)^0,7,c
  1504   00277E  EFC5  F013         	goto	u880
  1505   002782  EFC3  F013         	goto	u881
  1506   002786                     u881:
  1507   002786  EFE0  F013         	goto	l795
  1508   00278A                     u880:
  1509   00278A  C001  F005         	movff	___xxtofl@val,??___xxtofl
  1510   00278E  C002  F006         	movff	___xxtofl@val+1,??___xxtofl+1
  1511   002792  C003  F007         	movff	___xxtofl@val+2,??___xxtofl+2
  1512   002796  C004  F008         	movff	___xxtofl@val+3,??___xxtofl+3
  1513   00279A  1E05               	comf	??___xxtofl^0,f,c
  1514   00279C  1E06               	comf	(??___xxtofl+1)^0,f,c
  1515   00279E  1E07               	comf	(??___xxtofl+2)^0,f,c
  1516   0027A0  1E08               	comf	(??___xxtofl+3)^0,f,c
  1517   0027A2  2A05               	incf	??___xxtofl^0,f,c
  1518   0027A4  0E00               	movlw	0
  1519   0027A6  2206               	addwfc	(??___xxtofl+1)^0,f,c
  1520   0027A8  2207               	addwfc	(??___xxtofl+2)^0,f,c
  1521   0027AA  2208               	addwfc	(??___xxtofl+3)^0,f,c
  1522   0027AC  C005  F00B         	movff	??___xxtofl,___xxtofl@arg
  1523   0027B0  C006  F00C         	movff	??___xxtofl+1,___xxtofl@arg+1
  1524   0027B4  C007  F00D         	movff	??___xxtofl+2,___xxtofl@arg+2
  1525   0027B8  C008  F00E         	movff	??___xxtofl+3,___xxtofl@arg+3
  1526   0027BC  EFE8  F013         	goto	l1389
  1527   0027C0                     l795:
  1528   0027C0  C001  F00B         	movff	___xxtofl@val,___xxtofl@arg
  1529   0027C4  C002  F00C         	movff	___xxtofl@val+1,___xxtofl@arg+1
  1530   0027C8  C003  F00D         	movff	___xxtofl@val+2,___xxtofl@arg+2
  1531   0027CC  C004  F00E         	movff	___xxtofl@val+3,___xxtofl@arg+3
  1532   0027D0                     l1389:
  1533   0027D0  5001               	movf	___xxtofl@val^0,w,c
  1534   0027D2  1002               	iorwf	(___xxtofl@val+1)^0,w,c
  1535   0027D4  1003               	iorwf	(___xxtofl@val+2)^0,w,c
  1536   0027D6  1004               	iorwf	(___xxtofl@val+3)^0,w,c
  1537   0027D8  A4D8               	btfss	status,2,c
  1538   0027DA  EFF1  F013         	goto	u891
  1539   0027DE  EFF3  F013         	goto	u890
  1540   0027E2                     u891:
  1541   0027E2  EFFD  F013         	goto	l1395
  1542   0027E6                     u890:
  1543   0027E6  0E00               	movlw	0
  1544   0027E8  6E01               	movwf	?___xxtofl^0,c
  1545   0027EA  0E00               	movlw	0
  1546   0027EC  6E02               	movwf	(?___xxtofl+1)^0,c
  1547   0027EE  0E00               	movlw	0
  1548   0027F0  6E03               	movwf	(?___xxtofl+2)^0,c
  1549   0027F2  0E00               	movlw	0
  1550   0027F4  6E04               	movwf	(?___xxtofl+3)^0,c
  1551   0027F6  EF8E  F014         	goto	l798
  1552   0027FA                     l1395:
  1553   0027FA  0E96               	movlw	150
  1554   0027FC  6E0A               	movwf	___xxtofl@exp^0,c
  1555   0027FE  EF07  F014         	goto	l1399
  1556   002802                     l1397:
  1557   002802  2A0A               	incf	___xxtofl@exp^0,f,c
  1558   002804  90D8               	bcf	status,0,c
  1559   002806  320E               	rrcf	(___xxtofl@arg+3)^0,f,c
  1560   002808  320D               	rrcf	(___xxtofl@arg+2)^0,f,c
  1561   00280A  320C               	rrcf	(___xxtofl@arg+1)^0,f,c
  1562   00280C  320B               	rrcf	___xxtofl@arg^0,f,c
  1563   00280E                     l1399:
  1564   00280E  0E00               	movlw	0
  1565   002810  140B               	andwf	___xxtofl@arg^0,w,c
  1566   002812  6E05               	movwf	??___xxtofl^0,c
  1567   002814  0E00               	movlw	0
  1568   002816  140C               	andwf	(___xxtofl@arg+1)^0,w,c
  1569   002818  6E06               	movwf	(??___xxtofl+1)^0,c
  1570   00281A  0E00               	movlw	0
  1571   00281C  140D               	andwf	(___xxtofl@arg+2)^0,w,c
  1572   00281E  6E07               	movwf	(??___xxtofl+2)^0,c
  1573   002820  0EFE               	movlw	254
  1574   002822  140E               	andwf	(___xxtofl@arg+3)^0,w,c
  1575   002824  6E08               	movwf	(??___xxtofl+3)^0,c
  1576   002826  5005               	movf	??___xxtofl^0,w,c
  1577   002828  1006               	iorwf	(??___xxtofl+1)^0,w,c
  1578   00282A  1007               	iorwf	(??___xxtofl+2)^0,w,c
  1579   00282C  1008               	iorwf	(??___xxtofl+3)^0,w,c
  1580   00282E  A4D8               	btfss	status,2,c
  1581   002830  EF1C  F014         	goto	u901
  1582   002834  EF1E  F014         	goto	u900
  1583   002838                     u901:
  1584   002838  EF01  F014         	goto	l1397
  1585   00283C                     u900:
  1586   00283C  EF2C  F014         	goto	l802
  1587   002840                     l1401:
  1588   002840  2A0A               	incf	___xxtofl@exp^0,f,c
  1589   002842  0E01               	movlw	1
  1590   002844  260B               	addwf	___xxtofl@arg^0,f,c
  1591   002846  0E00               	movlw	0
  1592   002848  220C               	addwfc	(___xxtofl@arg+1)^0,f,c
  1593   00284A  220D               	addwfc	(___xxtofl@arg+2)^0,f,c
  1594   00284C  220E               	addwfc	(___xxtofl@arg+3)^0,f,c
  1595   00284E  90D8               	bcf	status,0,c
  1596   002850  320E               	rrcf	(___xxtofl@arg+3)^0,f,c
  1597   002852  320D               	rrcf	(___xxtofl@arg+2)^0,f,c
  1598   002854  320C               	rrcf	(___xxtofl@arg+1)^0,f,c
  1599   002856  320B               	rrcf	___xxtofl@arg^0,f,c
  1600   002858                     l802:
  1601   002858  0E00               	movlw	0
  1602   00285A  140B               	andwf	___xxtofl@arg^0,w,c
  1603   00285C  6E05               	movwf	??___xxtofl^0,c
  1604   00285E  0E00               	movlw	0
  1605   002860  140C               	andwf	(___xxtofl@arg+1)^0,w,c
  1606   002862  6E06               	movwf	(??___xxtofl+1)^0,c
  1607   002864  0E00               	movlw	0
  1608   002866  140D               	andwf	(___xxtofl@arg+2)^0,w,c
  1609   002868  6E07               	movwf	(??___xxtofl+2)^0,c
  1610   00286A  0EFF               	movlw	255
  1611   00286C  140E               	andwf	(___xxtofl@arg+3)^0,w,c
  1612   00286E  6E08               	movwf	(??___xxtofl+3)^0,c
  1613   002870  5005               	movf	??___xxtofl^0,w,c
  1614   002872  1006               	iorwf	(??___xxtofl+1)^0,w,c
  1615   002874  1007               	iorwf	(??___xxtofl+2)^0,w,c
  1616   002876  1008               	iorwf	(??___xxtofl+3)^0,w,c
  1617   002878  A4D8               	btfss	status,2,c
  1618   00287A  EF41  F014         	goto	u911
  1619   00287E  EF43  F014         	goto	u910
  1620   002882                     u911:
  1621   002882  EF20  F014         	goto	l1401
  1622   002886                     u910:
  1623   002886  EF4B  F014         	goto	l1409
  1624   00288A                     l1407:
  1625   00288A  060A               	decf	___xxtofl@exp^0,f,c
  1626   00288C  90D8               	bcf	status,0,c
  1627   00288E  360B               	rlcf	___xxtofl@arg^0,f,c
  1628   002890  360C               	rlcf	(___xxtofl@arg+1)^0,f,c
  1629   002892  360D               	rlcf	(___xxtofl@arg+2)^0,f,c
  1630   002894  360E               	rlcf	(___xxtofl@arg+3)^0,f,c
  1631   002896                     l1409:
  1632   002896  BE0D               	btfsc	(___xxtofl@arg+2)^0,7,c
  1633   002898  EF50  F014         	goto	u921
  1634   00289C  EF52  F014         	goto	u920
  1635   0028A0                     u921:
  1636   0028A0  EF5A  F014         	goto	l809
  1637   0028A4                     u920:
  1638   0028A4  0E02               	movlw	2
  1639   0028A6  600A               	cpfslt	___xxtofl@exp^0,c
  1640   0028A8  EF58  F014         	goto	u931
  1641   0028AC  EF5A  F014         	goto	u930
  1642   0028B0                     u931:
  1643   0028B0  EF45  F014         	goto	l1407
  1644   0028B4                     u930:
  1645   0028B4                     l809:
  1646   0028B4  B00A               	btfsc	___xxtofl@exp^0,0,c
  1647   0028B6  EF5F  F014         	goto	u941
  1648   0028BA  EF61  F014         	goto	u940
  1649   0028BE                     u941:
  1650   0028BE  EF62  F014         	goto	l1415
  1651   0028C2                     u940:
  1652   0028C2  9E0D               	bcf	(___xxtofl@arg+2)^0,7,c
  1653   0028C4                     l1415:
  1654   0028C4  90D8               	bcf	status,0,c
  1655   0028C6  320A               	rrcf	___xxtofl@exp^0,f,c
  1656   0028C8  C00A  F005         	movff	___xxtofl@exp,??___xxtofl
  1657   0028CC  6A06               	clrf	(??___xxtofl+1)^0,c
  1658   0028CE  6A07               	clrf	(??___xxtofl+2)^0,c
  1659   0028D0  6A08               	clrf	(??___xxtofl+3)^0,c
  1660   0028D2  C005  F008         	movff	??___xxtofl,??___xxtofl+3
  1661   0028D6  6A07               	clrf	(??___xxtofl+2)^0,c
  1662   0028D8  6A06               	clrf	(??___xxtofl+1)^0,c
  1663   0028DA  6A05               	clrf	??___xxtofl^0,c
  1664   0028DC  5005               	movf	??___xxtofl^0,w,c
  1665   0028DE  120B               	iorwf	___xxtofl@arg^0,f,c
  1666   0028E0  5006               	movf	(??___xxtofl+1)^0,w,c
  1667   0028E2  120C               	iorwf	(___xxtofl@arg+1)^0,f,c
  1668   0028E4  5007               	movf	(??___xxtofl+2)^0,w,c
  1669   0028E6  120D               	iorwf	(___xxtofl@arg+2)^0,f,c
  1670   0028E8  5008               	movf	(??___xxtofl+3)^0,w,c
  1671   0028EA  120E               	iorwf	(___xxtofl@arg+3)^0,f,c
  1672   0028EC  5009               	movf	___xxtofl@sign^0,w,c
  1673   0028EE  B4D8               	btfsc	status,2,c
  1674   0028F0  EF7C  F014         	goto	u951
  1675   0028F4  EF7E  F014         	goto	u950
  1676   0028F8                     u951:
  1677   0028F8  EF86  F014         	goto	l1425
  1678   0028FC                     u950:
  1679   0028FC  BE04               	btfsc	(___xxtofl@val+3)^0,7,c
  1680   0028FE  EF85  F014         	goto	u960
  1681   002902  EF83  F014         	goto	u961
  1682   002906                     u961:
  1683   002906  EF86  F014         	goto	l1425
  1684   00290A                     u960:
  1685   00290A  8E0E               	bsf	(___xxtofl@arg+3)^0,7,c
  1686   00290C                     l1425:
  1687   00290C  C00B  F001         	movff	___xxtofl@arg,?___xxtofl
  1688   002910  C00C  F002         	movff	___xxtofl@arg+1,?___xxtofl+1
  1689   002914  C00D  F003         	movff	___xxtofl@arg+2,?___xxtofl+2
  1690   002918  C00E  F004         	movff	___xxtofl@arg+3,?___xxtofl+3
  1691   00291C                     l798:
  1692   00291C  0012               	return		;funcret
  1693   00291E                     __end_of___xxtofl:
  1694                           	callstack 0
  1695                           
  1696 ;; *************** function ___flmul *****************
  1697 ;; Defined at:
  1698 ;;		line 8 in file "C:\Program Files\Microchip\xc8\v2.46\pic\sources\c99\common\sprcmul.c"
  1699 ;; Parameters:    Size  Location     Type
  1700 ;;  b               4   14[COMRAM] unsigned char 
  1701 ;;  a               4   18[COMRAM] unsigned char 
  1702 ;; Auto vars:     Size  Location     Type
  1703 ;;  prod            4   33[COMRAM] struct .
  1704 ;;  grs             4   27[COMRAM] unsigned long 
  1705 ;;  temp            2   37[COMRAM] struct .
  1706 ;;  bexp            1   32[COMRAM] unsigned char 
  1707 ;;  aexp            1   31[COMRAM] unsigned char 
  1708 ;;  sign            1   26[COMRAM] unsigned char 
  1709 ;; Return value:  Size  Location     Type
  1710 ;;                  4   14[COMRAM] unsigned char 
  1711 ;; Registers used:
  1712 ;;		wreg, status,2, status,0, prodl, prodh
  1713 ;; Tracked objects:
  1714 ;;		On entry : 0/0
  1715 ;;		On exit  : 0/0
  1716 ;;		Unchanged: 0/0
  1717 ;; Data sizes:     COMRAM   BANK0   BANK1   BANK2   BANK3   BANK4   BANK5   BANK6   BANK7   BANK8   BANK9  BANK10  BANK1
      +1  BANK12  BANK13  BANK14  BANK15  BANK16  BANK17  BANK18  BANK19  BANK20  BANK21  BANK22  BANK23  BANK24  BANK25  BANK2
      +6  BANK27  BANK28  BANK29  BANK30  BANK31
  1718 ;;      Params:         8       0       0       0       0       0       0       0       0       0       0       0       
      +0       0       0       0       0       0       0       0       0       0       0       0       0       0       0       
      +0       0       0       0       0       0
  1719 ;;      Locals:        13       0       0       0       0       0       0       0       0       0       0       0       
      +0       0       0       0       0       0       0       0       0       0       0       0       0       0       0       
      +0       0       0       0       0       0
  1720 ;;      Temps:          4       0       0       0       0       0       0       0       0       0       0       0       
      +0       0       0       0       0       0       0       0       0       0       0       0       0       0       0       
      +0       0       0       0       0       0
  1721 ;;      Totals:        25       0       0       0       0       0       0       0       0       0       0       0       
      +0       0       0       0       0       0       0       0       0       0       0       0       0       0       0       
      +0       0       0       0       0       0
  1722 ;;Total ram usage:       25 bytes
  1723 ;; Hardware stack levels used: 1
  1724 ;; This function calls:
  1725 ;;		Nothing
  1726 ;; This function is called by:
  1727 ;;		_conv
  1728 ;; This function uses a non-reentrant model
  1729 ;;
  1730                           
  1731                           	psect	text6
  1732   002024                     __ptext6:
  1733                           	callstack 0
  1734   002024                     ___flmul:
  1735                           	callstack 29
  1736   002024  5012               	movf	(___flmul@b+3)^0,w,c
  1737   002026  0B80               	andlw	128
  1738   002028  6E1B               	movwf	___flmul@sign^0,c
  1739   00202A  5012               	movf	(___flmul@b+3)^0,w,c
  1740   00202C  2412               	addwf	(___flmul@b+3)^0,w,c
  1741   00202E  6E21               	movwf	___flmul@bexp^0,c
  1742   002030  AE11               	btfss	(___flmul@b+2)^0,7,c
  1743   002032  EF1D  F010         	goto	u631
  1744   002036  EF1F  F010         	goto	u630
  1745   00203A                     u631:
  1746   00203A  EF20  F010         	goto	l1237
  1747   00203E                     u630:
  1748   00203E  8021               	bsf	___flmul@bexp^0,0,c
  1749   002040                     l1237:
  1750   002040  5021               	movf	___flmul@bexp^0,w,c
  1751   002042  B4D8               	btfsc	status,2,c
  1752   002044  EF26  F010         	goto	u641
  1753   002048  EF28  F010         	goto	u640
  1754   00204C                     u641:
  1755   00204C  EF3B  F010         	goto	l1245
  1756   002050                     u640:
  1757   002050  2821               	incf	___flmul@bexp^0,w,c
  1758   002052  A4D8               	btfss	status,2,c
  1759   002054  EF2E  F010         	goto	u651
  1760   002058  EF30  F010         	goto	u650
  1761   00205C                     u651:
  1762   00205C  EF38  F010         	goto	l1243
  1763   002060                     u650:
  1764   002060  0E00               	movlw	0
  1765   002062  6E0F               	movwf	___flmul@b^0,c
  1766   002064  0E00               	movlw	0
  1767   002066  6E10               	movwf	(___flmul@b+1)^0,c
  1768   002068  0E00               	movlw	0
  1769   00206A  6E11               	movwf	(___flmul@b+2)^0,c
  1770   00206C  0E00               	movlw	0
  1771   00206E  6E12               	movwf	(___flmul@b+3)^0,c
  1772   002070                     l1243:
  1773   002070  8E11               	bsf	(___flmul@b+2)^0,7,c
  1774   002072  EF43  F010         	goto	l1247
  1775   002076                     l1245:
  1776   002076  0E00               	movlw	0
  1777   002078  6E0F               	movwf	___flmul@b^0,c
  1778   00207A  0E00               	movlw	0
  1779   00207C  6E10               	movwf	(___flmul@b+1)^0,c
  1780   00207E  0E00               	movlw	0
  1781   002080  6E11               	movwf	(___flmul@b+2)^0,c
  1782   002082  0E00               	movlw	0
  1783   002084  6E12               	movwf	(___flmul@b+3)^0,c
  1784   002086                     l1247:
  1785   002086  5016               	movf	(___flmul@a+3)^0,w,c
  1786   002088  0B80               	andlw	128
  1787   00208A  1A1B               	xorwf	___flmul@sign^0,f,c
  1788   00208C  5016               	movf	(___flmul@a+3)^0,w,c
  1789   00208E  2416               	addwf	(___flmul@a+3)^0,w,c
  1790   002090  6E20               	movwf	___flmul@aexp^0,c
  1791   002092  AE15               	btfss	(___flmul@a+2)^0,7,c
  1792   002094  EF4E  F010         	goto	u661
  1793   002098  EF50  F010         	goto	u660
  1794   00209C                     u661:
  1795   00209C  EF51  F010         	goto	l1255
  1796   0020A0                     u660:
  1797   0020A0  8020               	bsf	___flmul@aexp^0,0,c
  1798   0020A2                     l1255:
  1799   0020A2  5020               	movf	___flmul@aexp^0,w,c
  1800   0020A4  B4D8               	btfsc	status,2,c
  1801   0020A6  EF57  F010         	goto	u671
  1802   0020AA  EF59  F010         	goto	u670
  1803   0020AE                     u671:
  1804   0020AE  EF6C  F010         	goto	l1263
  1805   0020B2                     u670:
  1806   0020B2  2820               	incf	___flmul@aexp^0,w,c
  1807   0020B4  A4D8               	btfss	status,2,c
  1808   0020B6  EF5F  F010         	goto	u681
  1809   0020BA  EF61  F010         	goto	u680
  1810   0020BE                     u681:
  1811   0020BE  EF69  F010         	goto	l1261
  1812   0020C2                     u680:
  1813   0020C2  0E00               	movlw	0
  1814   0020C4  6E13               	movwf	___flmul@a^0,c
  1815   0020C6  0E00               	movlw	0
  1816   0020C8  6E14               	movwf	(___flmul@a+1)^0,c
  1817   0020CA  0E00               	movlw	0
  1818   0020CC  6E15               	movwf	(___flmul@a+2)^0,c
  1819   0020CE  0E00               	movlw	0
  1820   0020D0  6E16               	movwf	(___flmul@a+3)^0,c
  1821   0020D2                     l1261:
  1822   0020D2  8E15               	bsf	(___flmul@a+2)^0,7,c
  1823   0020D4  EF74  F010         	goto	l754
  1824   0020D8                     l1263:
  1825   0020D8  0E00               	movlw	0
  1826   0020DA  6E13               	movwf	___flmul@a^0,c
  1827   0020DC  0E00               	movlw	0
  1828   0020DE  6E14               	movwf	(___flmul@a+1)^0,c
  1829   0020E0  0E00               	movlw	0
  1830   0020E2  6E15               	movwf	(___flmul@a+2)^0,c
  1831   0020E4  0E00               	movlw	0
  1832   0020E6  6E16               	movwf	(___flmul@a+3)^0,c
  1833   0020E8                     l754:
  1834   0020E8  5020               	movf	___flmul@aexp^0,w,c
  1835   0020EA  B4D8               	btfsc	status,2,c
  1836   0020EC  EF7A  F010         	goto	u691
  1837   0020F0  EF7C  F010         	goto	u690
  1838   0020F4                     u691:
  1839   0020F4  EF84  F010         	goto	l1267
  1840   0020F8                     u690:
  1841   0020F8  5021               	movf	___flmul@bexp^0,w,c
  1842   0020FA  A4D8               	btfss	status,2,c
  1843   0020FC  EF82  F010         	goto	u701
  1844   002100  EF84  F010         	goto	u700
  1845   002104                     u701:
  1846   002104  EF8E  F010         	goto	l1271
  1847   002108                     u700:
  1848   002108                     l1267:
  1849   002108  0E00               	movlw	0
  1850   00210A  6E0F               	movwf	?___flmul^0,c
  1851   00210C  0E00               	movlw	0
  1852   00210E  6E10               	movwf	(?___flmul+1)^0,c
  1853   002110  0E00               	movlw	0
  1854   002112  6E11               	movwf	(?___flmul+2)^0,c
  1855   002114  0E00               	movlw	0
  1856   002116  6E12               	movwf	(?___flmul+3)^0,c
  1857   002118  EF38  F012         	goto	l758
  1858   00211C                     l1271:
  1859   00211C  5015               	movf	(___flmul@a+2)^0,w,c
  1860   00211E  020F               	mulwf	___flmul@b^0,c
  1861   002120  006F FFCC  F026    	movff	prodl,___flmul@temp
  1862   002126  006F FFD0  F027    	movff	prodh,___flmul@temp+1
  1863   00212C  5026               	movf	___flmul@temp^0,w,c
  1864   00212E  6E1C               	movwf	___flmul@grs^0,c
  1865   002130  6A1D               	clrf	(___flmul@grs+1)^0,c
  1866   002132  6A1E               	clrf	(___flmul@grs+2)^0,c
  1867   002134  6A1F               	clrf	(___flmul@grs+3)^0,c
  1868   002136  5027               	movf	(___flmul@temp+1)^0,w,c
  1869   002138  6E22               	movwf	___flmul@prod^0,c
  1870   00213A  6A23               	clrf	(___flmul@prod+1)^0,c
  1871   00213C  6A24               	clrf	(___flmul@prod+2)^0,c
  1872   00213E  6A25               	clrf	(___flmul@prod+3)^0,c
  1873   002140  5014               	movf	(___flmul@a+1)^0,w,c
  1874   002142  0210               	mulwf	(___flmul@b+1)^0,c
  1875   002144  006F FFCC  F026    	movff	prodl,___flmul@temp
  1876   00214A  006F FFD0  F027    	movff	prodh,___flmul@temp+1
  1877   002150  5026               	movf	___flmul@temp^0,w,c
  1878   002152  261C               	addwf	___flmul@grs^0,f,c
  1879   002154  0E00               	movlw	0
  1880   002156  221D               	addwfc	(___flmul@grs+1)^0,f,c
  1881   002158  221E               	addwfc	(___flmul@grs+2)^0,f,c
  1882   00215A  221F               	addwfc	(___flmul@grs+3)^0,f,c
  1883   00215C  5027               	movf	(___flmul@temp+1)^0,w,c
  1884   00215E  2622               	addwf	___flmul@prod^0,f,c
  1885   002160  0E00               	movlw	0
  1886   002162  2223               	addwfc	(___flmul@prod+1)^0,f,c
  1887   002164  2224               	addwfc	(___flmul@prod+2)^0,f,c
  1888   002166  2225               	addwfc	(___flmul@prod+3)^0,f,c
  1889   002168  5013               	movf	___flmul@a^0,w,c
  1890   00216A  0211               	mulwf	(___flmul@b+2)^0,c
  1891   00216C  006F FFCC  F026    	movff	prodl,___flmul@temp
  1892   002172  006F FFD0  F027    	movff	prodh,___flmul@temp+1
  1893   002178  5026               	movf	___flmul@temp^0,w,c
  1894   00217A  261C               	addwf	___flmul@grs^0,f,c
  1895   00217C  0E00               	movlw	0
  1896   00217E  221D               	addwfc	(___flmul@grs+1)^0,f,c
  1897   002180  221E               	addwfc	(___flmul@grs+2)^0,f,c
  1898   002182  221F               	addwfc	(___flmul@grs+3)^0,f,c
  1899   002184  5027               	movf	(___flmul@temp+1)^0,w,c
  1900   002186  2622               	addwf	___flmul@prod^0,f,c
  1901   002188  0E00               	movlw	0
  1902   00218A  2223               	addwfc	(___flmul@prod+1)^0,f,c
  1903   00218C  2224               	addwfc	(___flmul@prod+2)^0,f,c
  1904   00218E  2225               	addwfc	(___flmul@prod+3)^0,f,c
  1905   002190  C01E  F01F         	movff	___flmul@grs+2,___flmul@grs+3
  1906   002194  C01D  F01E         	movff	___flmul@grs+1,___flmul@grs+2
  1907   002198  C01C  F01D         	movff	___flmul@grs,___flmul@grs+1
  1908   00219C  6A1C               	clrf	___flmul@grs^0,c
  1909   00219E  5013               	movf	___flmul@a^0,w,c
  1910   0021A0  0210               	mulwf	(___flmul@b+1)^0,c
  1911   0021A2  006F FFCC  F026    	movff	prodl,___flmul@temp
  1912   0021A8  006F FFD0  F027    	movff	prodh,___flmul@temp+1
  1913   0021AE  5026               	movf	___flmul@temp^0,w,c
  1914   0021B0  261C               	addwf	___flmul@grs^0,f,c
  1915   0021B2  5027               	movf	(___flmul@temp+1)^0,w,c
  1916   0021B4  221D               	addwfc	(___flmul@grs+1)^0,f,c
  1917   0021B6  0E00               	movlw	0
  1918   0021B8  221E               	addwfc	(___flmul@grs+2)^0,f,c
  1919   0021BA  0E00               	movlw	0
  1920   0021BC  221F               	addwfc	(___flmul@grs+3)^0,f,c
  1921   0021BE  5014               	movf	(___flmul@a+1)^0,w,c
  1922   0021C0  020F               	mulwf	___flmul@b^0,c
  1923   0021C2  006F FFCC  F026    	movff	prodl,___flmul@temp
  1924   0021C8  006F FFD0  F027    	movff	prodh,___flmul@temp+1
  1925   0021CE  5026               	movf	___flmul@temp^0,w,c
  1926   0021D0  261C               	addwf	___flmul@grs^0,f,c
  1927   0021D2  5027               	movf	(___flmul@temp+1)^0,w,c
  1928   0021D4  221D               	addwfc	(___flmul@grs+1)^0,f,c
  1929   0021D6  0E00               	movlw	0
  1930   0021D8  221E               	addwfc	(___flmul@grs+2)^0,f,c
  1931   0021DA  0E00               	movlw	0
  1932   0021DC  221F               	addwfc	(___flmul@grs+3)^0,f,c
  1933   0021DE  C01E  F01F         	movff	___flmul@grs+2,___flmul@grs+3
  1934   0021E2  C01D  F01E         	movff	___flmul@grs+1,___flmul@grs+2
  1935   0021E6  C01C  F01D         	movff	___flmul@grs,___flmul@grs+1
  1936   0021EA  6A1C               	clrf	___flmul@grs^0,c
  1937   0021EC  5013               	movf	___flmul@a^0,w,c
  1938   0021EE  020F               	mulwf	___flmul@b^0,c
  1939   0021F0  006F FFCC  F026    	movff	prodl,___flmul@temp
  1940   0021F6  006F FFD0  F027    	movff	prodh,___flmul@temp+1
  1941   0021FC  5026               	movf	___flmul@temp^0,w,c
  1942   0021FE  261C               	addwf	___flmul@grs^0,f,c
  1943   002200  5027               	movf	(___flmul@temp+1)^0,w,c
  1944   002202  221D               	addwfc	(___flmul@grs+1)^0,f,c
  1945   002204  0E00               	movlw	0
  1946   002206  221E               	addwfc	(___flmul@grs+2)^0,f,c
  1947   002208  0E00               	movlw	0
  1948   00220A  221F               	addwfc	(___flmul@grs+3)^0,f,c
  1949   00220C  5015               	movf	(___flmul@a+2)^0,w,c
  1950   00220E  0210               	mulwf	(___flmul@b+1)^0,c
  1951   002210  006F FFCC  F026    	movff	prodl,___flmul@temp
  1952   002216  006F FFD0  F027    	movff	prodh,___flmul@temp+1
  1953   00221C  5026               	movf	___flmul@temp^0,w,c
  1954   00221E  2622               	addwf	___flmul@prod^0,f,c
  1955   002220  5027               	movf	(___flmul@temp+1)^0,w,c
  1956   002222  2223               	addwfc	(___flmul@prod+1)^0,f,c
  1957   002224  0E00               	movlw	0
  1958   002226  2224               	addwfc	(___flmul@prod+2)^0,f,c
  1959   002228  0E00               	movlw	0
  1960   00222A  2225               	addwfc	(___flmul@prod+3)^0,f,c
  1961   00222C  5014               	movf	(___flmul@a+1)^0,w,c
  1962   00222E  0211               	mulwf	(___flmul@b+2)^0,c
  1963   002230  006F FFCC  F026    	movff	prodl,___flmul@temp
  1964   002236  006F FFD0  F027    	movff	prodh,___flmul@temp+1
  1965   00223C  5026               	movf	___flmul@temp^0,w,c
  1966   00223E  2622               	addwf	___flmul@prod^0,f,c
  1967   002240  5027               	movf	(___flmul@temp+1)^0,w,c
  1968   002242  2223               	addwfc	(___flmul@prod+1)^0,f,c
  1969   002244  0E00               	movlw	0
  1970   002246  2224               	addwfc	(___flmul@prod+2)^0,f,c
  1971   002248  0E00               	movlw	0
  1972   00224A  2225               	addwfc	(___flmul@prod+3)^0,f,c
  1973   00224C  5015               	movf	(___flmul@a+2)^0,w,c
  1974   00224E  0211               	mulwf	(___flmul@b+2)^0,c
  1975   002250  006F FFCC  F026    	movff	prodl,___flmul@temp
  1976   002256  006F FFD0  F027    	movff	prodh,___flmul@temp+1
  1977   00225C  5026               	movf	___flmul@temp^0,w,c
  1978   00225E  6E17               	movwf	??___flmul^0,c
  1979   002260  5027               	movf	(___flmul@temp+1)^0,w,c
  1980   002262  6E18               	movwf	(??___flmul+1)^0,c
  1981   002264  6A19               	clrf	(??___flmul+2)^0,c
  1982   002266  6A1A               	clrf	(??___flmul+3)^0,c
  1983   002268  C019  F01A         	movff	??___flmul+2,??___flmul+3
  1984   00226C  C018  F019         	movff	??___flmul+1,??___flmul+2
  1985   002270  C017  F018         	movff	??___flmul,??___flmul+1
  1986   002274  6A17               	clrf	??___flmul^0,c
  1987   002276  5017               	movf	??___flmul^0,w,c
  1988   002278  2622               	addwf	___flmul@prod^0,f,c
  1989   00227A  5018               	movf	(??___flmul+1)^0,w,c
  1990   00227C  2223               	addwfc	(___flmul@prod+1)^0,f,c
  1991   00227E  5019               	movf	(??___flmul+2)^0,w,c
  1992   002280  2224               	addwfc	(___flmul@prod+2)^0,f,c
  1993   002282  501A               	movf	(??___flmul+3)^0,w,c
  1994   002284  2225               	addwfc	(___flmul@prod+3)^0,f,c
  1995   002286  C01C  F017         	movff	___flmul@grs,??___flmul
  1996   00228A  C01D  F018         	movff	___flmul@grs+1,??___flmul+1
  1997   00228E  C01E  F019         	movff	___flmul@grs+2,??___flmul+2
  1998   002292  C01F  F01A         	movff	___flmul@grs+3,??___flmul+3
  1999   002296  0E19               	movlw	25
  2000   002298  EF53  F011         	goto	u710
  2001   00229C                     u715:
  2002   00229C  90D8               	bcf	status,0,c
  2003   00229E  321A               	rrcf	(??___flmul+3)^0,f,c
  2004   0022A0  3219               	rrcf	(??___flmul+2)^0,f,c
  2005   0022A2  3218               	rrcf	(??___flmul+1)^0,f,c
  2006   0022A4  3217               	rrcf	??___flmul^0,f,c
  2007   0022A6                     u710:
  2008   0022A6  2EE8               	decfsz	wreg,f,c
  2009   0022A8  EF4E  F011         	goto	u715
  2010   0022AC  5017               	movf	??___flmul^0,w,c
  2011   0022AE  2622               	addwf	___flmul@prod^0,f,c
  2012   0022B0  5018               	movf	(??___flmul+1)^0,w,c
  2013   0022B2  2223               	addwfc	(___flmul@prod+1)^0,f,c
  2014   0022B4  5019               	movf	(??___flmul+2)^0,w,c
  2015   0022B6  2224               	addwfc	(___flmul@prod+2)^0,f,c
  2016   0022B8  501A               	movf	(??___flmul+3)^0,w,c
  2017   0022BA  2225               	addwfc	(___flmul@prod+3)^0,f,c
  2018   0022BC  C01E  F01F         	movff	___flmul@grs+2,___flmul@grs+3
  2019   0022C0  C01D  F01E         	movff	___flmul@grs+1,___flmul@grs+2
  2020   0022C4  C01C  F01D         	movff	___flmul@grs,___flmul@grs+1
  2021   0022C8  6A1C               	clrf	___flmul@grs^0,c
  2022   0022CA  5020               	movf	___flmul@aexp^0,w,c
  2023   0022CC  C021  F017         	movff	___flmul@bexp,??___flmul
  2024   0022D0  6A18               	clrf	(??___flmul+1)^0,c
  2025   0022D2  2617               	addwf	??___flmul^0,f,c
  2026   0022D4  0E00               	movlw	0
  2027   0022D6  2218               	addwfc	(??___flmul+1)^0,f,c
  2028   0022D8  0E82               	movlw	130
  2029   0022DA  2417               	addwf	??___flmul^0,w,c
  2030   0022DC  6E26               	movwf	___flmul@temp^0,c
  2031   0022DE  0EFF               	movlw	255
  2032   0022E0  2018               	addwfc	(??___flmul+1)^0,w,c
  2033   0022E2  6E27               	movwf	(___flmul@temp+1)^0,c
  2034   0022E4  EF89  F011         	goto	l1319
  2035   0022E8                     l1313:
  2036   0022E8  90D8               	bcf	status,0,c
  2037   0022EA  3622               	rlcf	___flmul@prod^0,f,c
  2038   0022EC  3623               	rlcf	(___flmul@prod+1)^0,f,c
  2039   0022EE  3624               	rlcf	(___flmul@prod+2)^0,f,c
  2040   0022F0  3625               	rlcf	(___flmul@prod+3)^0,f,c
  2041   0022F2  AE1F               	btfss	(___flmul@grs+3)^0,7,c
  2042   0022F4  EF7E  F011         	goto	u721
  2043   0022F8  EF80  F011         	goto	u720
  2044   0022FC                     u721:
  2045   0022FC  EF81  F011         	goto	l761
  2046   002300                     u720:
  2047   002300  8022               	bsf	___flmul@prod^0,0,c
  2048   002302                     l761:
  2049   002302  90D8               	bcf	status,0,c
  2050   002304  361C               	rlcf	___flmul@grs^0,f,c
  2051   002306  361D               	rlcf	(___flmul@grs+1)^0,f,c
  2052   002308  361E               	rlcf	(___flmul@grs+2)^0,f,c
  2053   00230A  361F               	rlcf	(___flmul@grs+3)^0,f,c
  2054   00230C  0626               	decf	___flmul@temp^0,f,c
  2055   00230E  A0D8               	btfss	status,0,c
  2056   002310  0627               	decf	(___flmul@temp+1)^0,f,c
  2057   002312                     l1319:
  2058   002312  AE24               	btfss	(___flmul@prod+2)^0,7,c
  2059   002314  EF8E  F011         	goto	u731
  2060   002318  EF90  F011         	goto	u730
  2061   00231C                     u731:
  2062   00231C  EF74  F011         	goto	l1313
  2063   002320                     u730:
  2064   002320  0E00               	movlw	0
  2065   002322  6E20               	movwf	___flmul@aexp^0,c
  2066   002324  AE1F               	btfss	(___flmul@grs+3)^0,7,c
  2067   002326  EF97  F011         	goto	u741
  2068   00232A  EF99  F011         	goto	u740
  2069   00232E                     u741:
  2070   00232E  EFBD  F011         	goto	l763
  2071   002332                     u740:
  2072   002332  0EFF               	movlw	255
  2073   002334  141C               	andwf	___flmul@grs^0,w,c
  2074   002336  6E17               	movwf	??___flmul^0,c
  2075   002338  0EFF               	movlw	255
  2076   00233A  141D               	andwf	(___flmul@grs+1)^0,w,c
  2077   00233C  6E18               	movwf	(??___flmul+1)^0,c
  2078   00233E  0EFF               	movlw	255
  2079   002340  141E               	andwf	(___flmul@grs+2)^0,w,c
  2080   002342  6E19               	movwf	(??___flmul+2)^0,c
  2081   002344  0E7F               	movlw	127
  2082   002346  141F               	andwf	(___flmul@grs+3)^0,w,c
  2083   002348  6E1A               	movwf	(??___flmul+3)^0,c
  2084   00234A  5017               	movf	??___flmul^0,w,c
  2085   00234C  1018               	iorwf	(??___flmul+1)^0,w,c
  2086   00234E  1019               	iorwf	(??___flmul+2)^0,w,c
  2087   002350  101A               	iorwf	(??___flmul+3)^0,w,c
  2088   002352  B4D8               	btfsc	status,2,c
  2089   002354  EFAE  F011         	goto	u751
  2090   002358  EFB0  F011         	goto	u750
  2091   00235C                     u751:
  2092   00235C  EFB4  F011         	goto	l764
  2093   002360                     u750:
  2094   002360                     l1327:
  2095   002360  0E01               	movlw	1
  2096   002362  6E20               	movwf	___flmul@aexp^0,c
  2097   002364  EFBD  F011         	goto	l763
  2098   002368                     l764:
  2099   002368  A022               	btfss	___flmul@prod^0,0,c
  2100   00236A  EFB9  F011         	goto	u761
  2101   00236E  EFBB  F011         	goto	u760
  2102   002372                     u761:
  2103   002372  EFBD  F011         	goto	l763
  2104   002376                     u760:
  2105   002376  EFB0  F011         	goto	l1327
  2106   00237A                     l763:
  2107   00237A  5020               	movf	___flmul@aexp^0,w,c
  2108   00237C  B4D8               	btfsc	status,2,c
  2109   00237E  EFC3  F011         	goto	u771
  2110   002382  EFC5  F011         	goto	u770
  2111   002386                     u771:
  2112   002386  EFE9  F011         	goto	l1339
  2113   00238A                     u770:
  2114   00238A  0E01               	movlw	1
  2115   00238C  2622               	addwf	___flmul@prod^0,f,c
  2116   00238E  0E00               	movlw	0
  2117   002390  2223               	addwfc	(___flmul@prod+1)^0,f,c
  2118   002392  2224               	addwfc	(___flmul@prod+2)^0,f,c
  2119   002394  2225               	addwfc	(___flmul@prod+3)^0,f,c
  2120   002396  A025               	btfss	(___flmul@prod+3)^0,0,c
  2121   002398  EFD0  F011         	goto	u781
  2122   00239C  EFD2  F011         	goto	u780
  2123   0023A0                     u781:
  2124   0023A0  EFE9  F011         	goto	l1339
  2125   0023A4                     u780:
  2126   0023A4  C022  F017         	movff	___flmul@prod,??___flmul
  2127   0023A8  C023  F018         	movff	___flmul@prod+1,??___flmul+1
  2128   0023AC  C024  F019         	movff	___flmul@prod+2,??___flmul+2
  2129   0023B0  C025  F01A         	movff	___flmul@prod+3,??___flmul+3
  2130   0023B4  341A               	rlcf	(??___flmul+3)^0,w,c
  2131   0023B6  321A               	rrcf	(??___flmul+3)^0,f,c
  2132   0023B8  3219               	rrcf	(??___flmul+2)^0,f,c
  2133   0023BA  3218               	rrcf	(??___flmul+1)^0,f,c
  2134   0023BC  3217               	rrcf	??___flmul^0,f,c
  2135   0023BE  C017  F022         	movff	??___flmul,___flmul@prod
  2136   0023C2  C018  F023         	movff	??___flmul+1,___flmul@prod+1
  2137   0023C6  C019  F024         	movff	??___flmul+2,___flmul@prod+2
  2138   0023CA  C01A  F025         	movff	??___flmul+3,___flmul@prod+3
  2139   0023CE  4A26               	infsnz	___flmul@temp^0,f,c
  2140   0023D0  2A27               	incf	(___flmul@temp+1)^0,f,c
  2141   0023D2                     l1339:
  2142   0023D2  BE27               	btfsc	(___flmul@temp+1)^0,7,c
  2143   0023D4  EFF4  F011         	goto	u791
  2144   0023D8  5027               	movf	(___flmul@temp+1)^0,w,c
  2145   0023DA  E108               	bnz	u790
  2146   0023DC  2826               	incf	___flmul@temp^0,w,c
  2147   0023DE  A0D8               	btfss	status,0,c
  2148   0023E0  EFF4  F011         	goto	u791
  2149   0023E4  EFF6  F011         	goto	u790
  2150   0023E8                     u791:
  2151   0023E8  EF00  F012         	goto	l1343
  2152   0023EC                     u790:
  2153   0023EC  0E00               	movlw	0
  2154   0023EE  6E22               	movwf	___flmul@prod^0,c
  2155   0023F0  0E00               	movlw	0
  2156   0023F2  6E23               	movwf	(___flmul@prod+1)^0,c
  2157   0023F4  0E80               	movlw	128
  2158   0023F6  6E24               	movwf	(___flmul@prod+2)^0,c
  2159   0023F8  0E7F               	movlw	127
  2160   0023FA  6E25               	movwf	(___flmul@prod+3)^0,c
  2161   0023FC  EF2E  F012         	goto	l1355
  2162   002400                     l1343:
  2163   002400  BE27               	btfsc	(___flmul@temp+1)^0,7,c
  2164   002402  EF0D  F012         	goto	u800
  2165   002406  5027               	movf	(___flmul@temp+1)^0,w,c
  2166   002408  E106               	bnz	u801
  2167   00240A  0426               	decf	___flmul@temp^0,w,c
  2168   00240C  B0D8               	btfsc	status,0,c
  2169   00240E  EF0B  F012         	goto	u801
  2170   002412  EF0D  F012         	goto	u800
  2171   002416                     u801:
  2172   002416  EF19  F012         	goto	l771
  2173   00241A                     u800:
  2174   00241A  0E00               	movlw	0
  2175   00241C  6E22               	movwf	___flmul@prod^0,c
  2176   00241E  0E00               	movlw	0
  2177   002420  6E23               	movwf	(___flmul@prod+1)^0,c
  2178   002422  0E00               	movlw	0
  2179   002424  6E24               	movwf	(___flmul@prod+2)^0,c
  2180   002426  0E00               	movlw	0
  2181   002428  6E25               	movwf	(___flmul@prod+3)^0,c
  2182   00242A  0E00               	movlw	0
  2183   00242C  6E1B               	movwf	___flmul@sign^0,c
  2184   00242E  EF2E  F012         	goto	l1355
  2185   002432                     l771:
  2186   002432  C026  F021         	movff	___flmul@temp,___flmul@bexp
  2187   002436  0EFF               	movlw	255
  2188   002438  1622               	andwf	___flmul@prod^0,f,c
  2189   00243A  0EFF               	movlw	255
  2190   00243C  1623               	andwf	(___flmul@prod+1)^0,f,c
  2191   00243E  0E7F               	movlw	127
  2192   002440  1624               	andwf	(___flmul@prod+2)^0,f,c
  2193   002442  0E00               	movlw	0
  2194   002444  1625               	andwf	(___flmul@prod+3)^0,f,c
  2195   002446  A021               	btfss	___flmul@bexp^0,0,c
  2196   002448  EF28  F012         	goto	u811
  2197   00244C  EF2A  F012         	goto	u810
  2198   002450                     u811:
  2199   002450  EF2B  F012         	goto	l1353
  2200   002454                     u810:
  2201   002454  8E24               	bsf	(___flmul@prod+2)^0,7,c
  2202   002456                     l1353:
  2203   002456  90D8               	bcf	status,0,c
  2204   002458  3021               	rrcf	___flmul@bexp^0,w,c
  2205   00245A  6E25               	movwf	(___flmul@prod+3)^0,c
  2206   00245C                     l1355:
  2207   00245C  501B               	movf	___flmul@sign^0,w,c
  2208   00245E  1225               	iorwf	(___flmul@prod+3)^0,f,c
  2209   002460  C022  F00F         	movff	___flmul@prod,?___flmul
  2210   002464  C023  F010         	movff	___flmul@prod+1,?___flmul+1
  2211   002468  C024  F011         	movff	___flmul@prod+2,?___flmul+2
  2212   00246C  C025  F012         	movff	___flmul@prod+3,?___flmul+3
  2213   002470                     l758:
  2214   002470  0012               	return		;funcret
  2215   002472                     __end_of___flmul:
  2216                           	callstack 0
  2217                           
  2218 ;; *************** function ___flge *****************
  2219 ;; Defined at:
  2220 ;;		line 4 in file "C:\Program Files\Microchip\xc8\v2.46\pic\sources\c99\common\flge.c"
  2221 ;; Parameters:    Size  Location     Type
  2222 ;;  ff1             4    0[COMRAM] unsigned char 
  2223 ;;  ff2             4    4[COMRAM] unsigned char 
  2224 ;; Auto vars:     Size  Location     Type
  2225 ;;		None
  2226 ;; Return value:  Size  Location     Type
  2227 ;;		None               void
  2228 ;; Registers used:
  2229 ;;		wreg, status,2, status,0
  2230 ;; Tracked objects:
  2231 ;;		On entry : 0/0
  2232 ;;		On exit  : 0/0
  2233 ;;		Unchanged: 0/0
  2234 ;; Data sizes:     COMRAM   BANK0   BANK1   BANK2   BANK3   BANK4   BANK5   BANK6   BANK7   BANK8   BANK9  BANK10  BANK1
      +1  BANK12  BANK13  BANK14  BANK15  BANK16  BANK17  BANK18  BANK19  BANK20  BANK21  BANK22  BANK23  BANK24  BANK25  BANK2
      +6  BANK27  BANK28  BANK29  BANK30  BANK31
  2235 ;;      Params:         8       0       0       0       0       0       0       0       0       0       0       0       
      +0       0       0       0       0       0       0       0       0       0       0       0       0       0       0       
      +0       0       0       0       0       0
  2236 ;;      Locals:         0       0       0       0       0       0       0       0       0       0       0       0       
      +0       0       0       0       0       0       0       0       0       0       0       0       0       0       0       
      +0       0       0       0       0       0
  2237 ;;      Temps:          4       0       0       0       0       0       0       0       0       0       0       0       
      +0       0       0       0       0       0       0       0       0       0       0       0       0       0       0       
      +0       0       0       0       0       0
  2238 ;;      Totals:        12       0       0       0       0       0       0       0       0       0       0       0       
      +0       0       0       0       0       0       0       0       0       0       0       0       0       0       0       
      +0       0       0       0       0       0
  2239 ;;Total ram usage:       12 bytes
  2240 ;; Hardware stack levels used: 1
  2241 ;; This function calls:
  2242 ;;		Nothing
  2243 ;; This function is called by:
  2244 ;;		_conv
  2245 ;; This function uses a non-reentrant model
  2246 ;;
  2247                           
  2248                           	psect	text7
  2249   00291E                     __ptext7:
  2250                           	callstack 0
  2251   00291E                     ___flge:
  2252                           	callstack 29
  2253   00291E  0E00               	movlw	0
  2254   002920  1401               	andwf	___flge@ff1^0,w,c
  2255   002922  6E09               	movwf	??___flge^0,c
  2256   002924  0E00               	movlw	0
  2257   002926  1402               	andwf	(___flge@ff1+1)^0,w,c
  2258   002928  6E0A               	movwf	(??___flge+1)^0,c
  2259   00292A  0E80               	movlw	128
  2260   00292C  1403               	andwf	(___flge@ff1+2)^0,w,c
  2261   00292E  6E0B               	movwf	(??___flge+2)^0,c
  2262   002930  0E7F               	movlw	127
  2263   002932  1404               	andwf	(___flge@ff1+3)^0,w,c
  2264   002934  6E0C               	movwf	(??___flge+3)^0,c
  2265   002936  5009               	movf	??___flge^0,w,c
  2266   002938  100A               	iorwf	(??___flge+1)^0,w,c
  2267   00293A  100B               	iorwf	(??___flge+2)^0,w,c
  2268   00293C  100C               	iorwf	(??___flge+3)^0,w,c
  2269   00293E  A4D8               	btfss	status,2,c
  2270   002940  EFA4  F014         	goto	u821
  2271   002944  EFA6  F014         	goto	u820
  2272   002948                     u821:
  2273   002948  EFAE  F014         	goto	l1365
  2274   00294C                     u820:
  2275   00294C  0E00               	movlw	0
  2276   00294E  6E01               	movwf	___flge@ff1^0,c
  2277   002950  0E00               	movlw	0
  2278   002952  6E02               	movwf	(___flge@ff1+1)^0,c
  2279   002954  0E00               	movlw	0
  2280   002956  6E03               	movwf	(___flge@ff1+2)^0,c
  2281   002958  0E00               	movlw	0
  2282   00295A  6E04               	movwf	(___flge@ff1+3)^0,c
  2283   00295C                     l1365:
  2284   00295C  0E00               	movlw	0
  2285   00295E  1405               	andwf	___flge@ff2^0,w,c
  2286   002960  6E09               	movwf	??___flge^0,c
  2287   002962  0E00               	movlw	0
  2288   002964  1406               	andwf	(___flge@ff2+1)^0,w,c
  2289   002966  6E0A               	movwf	(??___flge+1)^0,c
  2290   002968  0E80               	movlw	128
  2291   00296A  1407               	andwf	(___flge@ff2+2)^0,w,c
  2292   00296C  6E0B               	movwf	(??___flge+2)^0,c
  2293   00296E  0E7F               	movlw	127
  2294   002970  1408               	andwf	(___flge@ff2+3)^0,w,c
  2295   002972  6E0C               	movwf	(??___flge+3)^0,c
  2296   002974  5009               	movf	??___flge^0,w,c
  2297   002976  100A               	iorwf	(??___flge+1)^0,w,c
  2298   002978  100B               	iorwf	(??___flge+2)^0,w,c
  2299   00297A  100C               	iorwf	(??___flge+3)^0,w,c
  2300   00297C  A4D8               	btfss	status,2,c
  2301   00297E  EFC3  F014         	goto	u831
  2302   002982  EFC5  F014         	goto	u830
  2303   002986                     u831:
  2304   002986  EFCD  F014         	goto	l1369
  2305   00298A                     u830:
  2306   00298A  0E00               	movlw	0
  2307   00298C  6E05               	movwf	___flge@ff2^0,c
  2308   00298E  0E00               	movlw	0
  2309   002990  6E06               	movwf	(___flge@ff2+1)^0,c
  2310   002992  0E00               	movlw	0
  2311   002994  6E07               	movwf	(___flge@ff2+2)^0,c
  2312   002996  0E00               	movlw	0
  2313   002998  6E08               	movwf	(___flge@ff2+3)^0,c
  2314   00299A                     l1369:
  2315   00299A  AE04               	btfss	(___flge@ff1+3)^0,7,c
  2316   00299C  EFD2  F014         	goto	u841
  2317   0029A0  EFD4  F014         	goto	u840
  2318   0029A4                     u841:
  2319   0029A4  EFDD  F014         	goto	l1373
  2320   0029A8                     u840:
  2321   0029A8  6C01               	negf	___flge@ff1^0,c
  2322   0029AA  1E02               	comf	(___flge@ff1+1)^0,f,c
  2323   0029AC  B0D8               	btfsc	status,0,c
  2324   0029AE  2A02               	incf	(___flge@ff1+1)^0,f,c
  2325   0029B0  1E03               	comf	(___flge@ff1+2)^0,f,c
  2326   0029B2  B0D8               	btfsc	status,0,c
  2327   0029B4  2A03               	incf	(___flge@ff1+2)^0,f,c
  2328   0029B6  0E80               	movlw	128
  2329   0029B8  5604               	subfwb	(___flge@ff1+3)^0,f,c
  2330   0029BA                     l1373:
  2331   0029BA  AE08               	btfss	(___flge@ff2+3)^0,7,c
  2332   0029BC  EFE2  F014         	goto	u851
  2333   0029C0  EFE4  F014         	goto	u850
  2334   0029C4                     u851:
  2335   0029C4  EFED  F014         	goto	l405
  2336   0029C8                     u850:
  2337   0029C8  6C05               	negf	___flge@ff2^0,c
  2338   0029CA  1E06               	comf	(___flge@ff2+1)^0,f,c
  2339   0029CC  B0D8               	btfsc	status,0,c
  2340   0029CE  2A06               	incf	(___flge@ff2+1)^0,f,c
  2341   0029D0  1E07               	comf	(___flge@ff2+2)^0,f,c
  2342   0029D2  B0D8               	btfsc	status,0,c
  2343   0029D4  2A07               	incf	(___flge@ff2+2)^0,f,c
  2344   0029D6  0E80               	movlw	128
  2345   0029D8  5608               	subfwb	(___flge@ff2+3)^0,f,c
  2346   0029DA                     l405:
  2347   0029DA  0E00               	movlw	0
  2348   0029DC  1A01               	xorwf	___flge@ff1^0,f,c
  2349   0029DE  0E00               	movlw	0
  2350   0029E0  1A02               	xorwf	(___flge@ff1+1)^0,f,c
  2351   0029E2  0E00               	movlw	0
  2352   0029E4  1A03               	xorwf	(___flge@ff1+2)^0,f,c
  2353   0029E6  0E80               	movlw	128
  2354   0029E8  1A04               	xorwf	(___flge@ff1+3)^0,f,c
  2355   0029EA  0E00               	movlw	0
  2356   0029EC  1A05               	xorwf	___flge@ff2^0,f,c
  2357   0029EE  0E00               	movlw	0
  2358   0029F0  1A06               	xorwf	(___flge@ff2+1)^0,f,c
  2359   0029F2  0E00               	movlw	0
  2360   0029F4  1A07               	xorwf	(___flge@ff2+2)^0,f,c
  2361   0029F6  0E80               	movlw	128
  2362   0029F8  1A08               	xorwf	(___flge@ff2+3)^0,f,c
  2363   0029FA  5005               	movf	___flge@ff2^0,w,c
  2364   0029FC  5C01               	subwf	___flge@ff1^0,w,c
  2365   0029FE  5006               	movf	(___flge@ff2+1)^0,w,c
  2366   002A00  5802               	subwfb	(___flge@ff1+1)^0,w,c
  2367   002A02  5007               	movf	(___flge@ff2+2)^0,w,c
  2368   002A04  5803               	subwfb	(___flge@ff1+2)^0,w,c
  2369   002A06  5008               	movf	(___flge@ff2+3)^0,w,c
  2370   002A08  5804               	subwfb	(___flge@ff1+3)^0,w,c
  2371   002A0A  B0D8               	btfsc	status,0,c
  2372   002A0C  EF0A  F015         	goto	u861
  2373   002A10  EF0C  F015         	goto	u860
  2374   002A14                     u861:
  2375   002A14  EF0F  F015         	goto	l1379
  2376   002A18                     u860:
  2377   002A18  90D8               	bcf	status,0,c
  2378   002A1A  EF10  F015         	goto	l410
  2379   002A1E                     l1379:
  2380   002A1E  80D8               	bsf	status,0,c
  2381   002A20                     l410:
  2382   002A20  0012               	return		;funcret
  2383   002A22                     __end_of___flge:
  2384                           	callstack 0
  2385                           
  2386                           	psect	rparam
  2387   000000                     
  2388                           	psect	config
  2389                           
  2390                           ;Config register CONFIG1L @ 0x300000
  2391                           ;	External Oscillator Selection
  2392                           ;	FEXTOSC = LP, LP (crystal oscillator) optimized for 32.768 kHz; PFM set to low power
  2393                           ;	Reset Oscillator Selection
  2394                           ;	RSTOSC = EXTOSC, EXTOSC operating per FEXTOSC bits (device manufacturing default)
  2395   300000                     	org	3145728
  2396   300000  F8                 	db	248
  2397                           
  2398                           ;Config register CONFIG1H @ 0x300001
  2399                           ;	Clock out Enable bit
  2400                           ;	CLKOUTEN = OFF, CLKOUT function is disabled
  2401                           ;	PRLOCKED One-Way Set Enable bit
  2402                           ;	PR1WAY = ON, PRLOCK bit can be cleared and set only once
  2403                           ;	Clock Switch Enable bit
  2404                           ;	CSWEN = ON, Writing to NOSC and NDIV is allowed
  2405                           ;	Fail-Safe Clock Monitor Enable bit
  2406                           ;	FCMEN = ON, Fail-Safe Clock Monitor enabled
  2407   300001                     	org	3145729
  2408   300001  FF                 	db	255
  2409                           
  2410                           ;Config register CONFIG2L @ 0x300002
  2411                           ;	MCLR Enable bit
  2412                           ;	MCLRE = EXTMCLR, If LVP = 0, MCLR pin is MCLR; If LVP = 1, RE3 pin function is MCLR
  2413                           ;	Power-up timer selection bits
  2414                           ;	PWRTS = PWRT_OFF, PWRT is disabled
  2415                           ;	Multi-vector enable bit
  2416                           ;	MVECEN = ON, Multi-vector enabled, Vector table used for interrupts
  2417                           ;	IVTLOCK bit One-way set enable bit
  2418                           ;	IVT1WAY = ON, IVTLOCK bit can be cleared and set only once
  2419                           ;	Low Power BOR Enable bit
  2420                           ;	LPBOREN = OFF, ULPBOR disabled
  2421                           ;	Brown-out Reset Enable bits
  2422                           ;	BOREN = SBORDIS, Brown-out Reset enabled , SBOREN bit is ignored
  2423   300002                     	org	3145730
  2424   300002  FF                 	db	255
  2425                           
  2426                           ;Config register CONFIG2H @ 0x300003
  2427                           ;	Brown-out Reset Voltage Selection bits
  2428                           ;	BORV = VBOR_2P45, Brown-out Reset Voltage (VBOR) set to 2.45V
  2429                           ;	ZCD Disable bit
  2430                           ;	ZCD = OFF, ZCD disabled. ZCD can be enabled by setting the ZCDSEN bit of ZCDCON
  2431                           ;	PPSLOCK bit One-Way Set Enable bit
  2432                           ;	PPS1WAY = ON, PPSLOCK bit can be cleared and set only once; PPS registers remain locke
      +                          d after one clear/set cycle
  2433                           ;	Stack Full/Underflow Reset Enable bit
  2434                           ;	STVREN = ON, Stack full/underflow will cause Reset
  2435                           ;	Debugger Enable bit
  2436                           ;	DEBUG = OFF, Background debugger disabled
  2437                           ;	Extended Instruction Set Enable bit
  2438                           ;	XINST = OFF, Extended Instruction Set and Indexed Addressing Mode disabled
  2439   300003                     	org	3145731
  2440   300003  FF                 	db	255
  2441                           
  2442                           ;Config register CONFIG3L @ 0x300004
  2443                           ;	WDT Period selection bits
  2444                           ;	WDTCPS = WDTCPS_31, Divider ratio 1:65536; software control of WDTPS
  2445                           ;	WDT operating mode
  2446                           ;	WDTE = OFF, WDT Disabled; SWDTEN is ignored
  2447   300004                     	org	3145732
  2448   300004  9F                 	db	159
  2449                           
  2450                           ;Config register CONFIG3H @ 0x300005
  2451                           ;	WDT Window Select bits
  2452                           ;	WDTCWS = WDTCWS_7, window always open (100%); software control; keyed access not requi
      +                          red
  2453                           ;	WDT input clock selector
  2454                           ;	WDTCCS = SC, Software Control
  2455   300005                     	org	3145733
  2456   300005  FF                 	db	255
  2457                           
  2458                           ;Config register CONFIG4L @ 0x300006
  2459                           ;	Boot Block Size selection bits
  2460                           ;	BBSIZE = BBSIZE_512, Boot Block size is 512 words
  2461                           ;	Boot Block enable bit
  2462                           ;	BBEN = OFF, Boot block disabled
  2463                           ;	Storage Area Flash enable bit
  2464                           ;	SAFEN = OFF, SAF disabled
  2465                           ;	Application Block write protection bit
  2466                           ;	WRTAPP = OFF, Application Block not write protected
  2467   300006                     	org	3145734
  2468   300006  FF                 	db	255
  2469                           
  2470                           ;Config register CONFIG4H @ 0x300007
  2471                           ;	Boot Block Write Protection bit
  2472                           ;	WRTB = OFF, Boot Block not write-protected
  2473                           ;	Configuration Register Write Protection bit
  2474                           ;	WRTC = OFF, Configuration registers not write-protected
  2475                           ;	Data EEPROM Write Protection bit
  2476                           ;	WRTD = OFF, Data EEPROM not write-protected
  2477                           ;	SAF Write protection bit
  2478                           ;	WRTSAF = OFF, SAF not Write Protected
  2479                           ;	Low Voltage Programming Enable bit
  2480                           ;	LVP = ON, Low voltage programming enabled. MCLR/VPP pin function is MCLR. MCLRE config
      +                          uration bit is ignored
  2481   300007                     	org	3145735
  2482   300007  FF                 	db	255
  2483                           
  2484                           ;Config register CONFIG5L @ 0x300008
  2485                           ;	PFM and Data EEPROM Code Protection bit
  2486                           ;	CP = OFF, PFM and Data EEPROM code protection disabled
  2487   300008                     	org	3145736
  2488   300008  FF                 	db	255
  2489                           
  2490                           ;Config register CONFIG5H @ 0x300009
  2491                           ;	unspecified, using default values
  2492   300009                     	org	3145737
  2493   300009  FF                 	db	255
  2494                           tosu	equ	0x3FFF
  2495                           tosh	equ	0x3FFE
  2496                           tosl	equ	0x3FFD
  2497                           stkptr	equ	0x3FFC
  2498                           pclatu	equ	0x3FFB
  2499                           pclath	equ	0x3FFA
  2500                           pcl	equ	0x3FF9
  2501                           tblptru	equ	0x3FF8
  2502                           tblptrh	equ	0x3FF7
  2503                           tblptrl	equ	0x3FF6
  2504                           tablat	equ	0x3FF5
  2505                           prodh	equ	0x3FF4
  2506                           prodl	equ	0x3FF3
  2507                           indf0	equ	0x3FEF
  2508                           postinc0	equ	0x3FEE
  2509                           postdec0	equ	0x3FED
  2510                           preinc0	equ	0x3FEC
  2511                           plusw0	equ	0x3FEB
  2512                           fsr0h	equ	0x3FEA
  2513                           fsr0l	equ	0x3FE9
  2514                           wreg	equ	0x3FE8
  2515                           indf1	equ	0x3FE7
  2516                           postinc1	equ	0x3FE6
  2517                           postdec1	equ	0x3FE5
  2518                           preinc1	equ	0x3FE4
  2519                           plusw1	equ	0x3FE3
  2520                           fsr1h	equ	0x3FE2
  2521                           fsr1l	equ	0x3FE1
  2522                           bsr	equ	0x3FE0
  2523                           indf2	equ	0x3FDF
  2524                           postinc2	equ	0x3FDE
  2525                           postdec2	equ	0x3FDD
  2526                           preinc2	equ	0x3FDC
  2527                           plusw2	equ	0x3FDB
  2528                           fsr2h	equ	0x3FDA
  2529                           fsr2l	equ	0x3FD9
  2530                           status	equ	0x3FD8

Data Sizes:
    Strings     0
    Constant    34
    Data        6
    BSS         24
    Persistent  4
    Stack       0

Auto Spaces:
    Space          Size  Autos    Used
    COMRAM           95     49      83
    BANK0           160      0       0
    BANK1           256      0       0
    BANK2           256      0       0
    BANK3           256      0       0
    BANK4           256      0       0
    BANK5           256      0       0
    BANK6           256      0       0
    BANK7           256      0       0
    BANK8           256      0       0
    BANK9           256      0       0
    BANK10          256      0       0
    BANK11          256      0       0
    BANK12          256      0       0
    BANK13          256      0       0
    BANK14          256      0       0
    BANK15          256      0       0
    BANK16          256      0       0
    BANK17          256      0       0
    BANK18          256      0       0
    BANK19          256      0       0
    BANK20          256      0       0
    BANK21          256      0       0
    BANK22          256      0       0
    BANK23          256      0       0
    BANK24          256      0       0
    BANK25          256      0       0
    BANK26          256      0       0
    BANK27          256      0       0
    BANK28          256      0       0
    BANK29          256      0       0
    BANK30          256      0       0
    BANK31          256      0       0

Pointer List with Targets:

    None.

Critical Paths under _main in COMRAM

    _main->_conv
    _conv->___flmul
    ___flmul->___xxtofl

Critical Paths under _main in BANK0

    None.

Critical Paths under _main in BANK1

    None.

Critical Paths under _main in BANK2

    None.

Critical Paths under _main in BANK3

    None.

Critical Paths under _main in BANK4

    None.

Critical Paths under _main in BANK5

    None.

Critical Paths under _main in BANK6

    None.

Critical Paths under _main in BANK7

    None.

Critical Paths under _main in BANK8

    None.

Critical Paths under _main in BANK9

    None.

Critical Paths under _main in BANK10

    None.

Critical Paths under _main in BANK11

    None.

Critical Paths under _main in BANK12

    None.

Critical Paths under _main in BANK13

    None.

Critical Paths under _main in BANK14

    None.

Critical Paths under _main in BANK15

    None.

Critical Paths under _main in BANK16

    None.

Critical Paths under _main in BANK17

    None.

Critical Paths under _main in BANK18

    None.

Critical Paths under _main in BANK19

    None.

Critical Paths under _main in BANK20

    None.

Critical Paths under _main in BANK21

    None.

Critical Paths under _main in BANK22

    None.

Critical Paths under _main in BANK23

    None.

Critical Paths under _main in BANK24

    None.

Critical Paths under _main in BANK25

    None.

Critical Paths under _main in BANK26

    None.

Critical Paths under _main in BANK27

    None.

Critical Paths under _main in BANK28

    None.

Critical Paths under _main in BANK29

    None.

Critical Paths under _main in BANK30

    None.

Critical Paths under _main in BANK31

    None.

Call Graph Tables:

 ---------------------------------------------------------------------------------
 (Depth) Function   	        Calls       Base Space   Used Autos Params    Refs
 ---------------------------------------------------------------------------------
 (0) _main                                                 7     7      0    2871
                                             43 COMRAM     6     6      0
                               _conv
                              _error
                         _scanKeypad
                         _setupPorts
 ---------------------------------------------------------------------------------
 (1) _setupPorts                                           0     0      0       0
 ---------------------------------------------------------------------------------
 (1) _scanKeypad                                          32    32      0     120
                                              0 COMRAM    30    30      0
 ---------------------------------------------------------------------------------
 (1) _error                                                4     4      0      30
                                              0 COMRAM     4     4      0
 ---------------------------------------------------------------------------------
 (1) _conv                                                 4     2      2    2628
                                             39 COMRAM     4     2      2
                             ___flge
                            ___flmul
                           ___xxtofl
 ---------------------------------------------------------------------------------
 (2) ___xxtofl                                            14    10      4     398
                                              0 COMRAM    14    10      4
 ---------------------------------------------------------------------------------
 (2) ___flmul                                             25    17      8    1744
                                             14 COMRAM    25    17      8
                           ___xxtofl (ARG)
 ---------------------------------------------------------------------------------
 (2) ___flge                                              12     4      8     486
                                              0 COMRAM    12     4      8
 ---------------------------------------------------------------------------------
 Estimated maximum stack depth 2
 ---------------------------------------------------------------------------------

 Call Graph Graphs:

 _main (ROOT)
   _conv
     ___flge
     ___flmul
       ___xxtofl (ARG)
     ___xxtofl
   _error
   _scanKeypad
   _setupPorts

 Address spaces:
Name               Size   Autos  Total    Cost      Usage
BIGRAM            1FFF      0       0      80        0.0%
BITBIGSFRlh        47E      0       0      74        0.0%
EEDATA             400      0       0       0        0.0%
BITBIGSFRlllll     240      0       0      78        0.0%
BITBANK31          100      0       0      66        0.0%
BANK31             100      0       0      67        0.0%
BITBANK30          100      0       0      64        0.0%
BANK30             100      0       0      65        0.0%
BITBANK29          100      0       0      62        0.0%
BANK29             100      0       0      63        0.0%
BITBANK28          100      0       0      60        0.0%
BANK28             100      0       0      61        0.0%
BITBANK27          100      0       0      58        0.0%
BANK27             100      0       0      59        0.0%
BITBANK26          100      0       0      56        0.0%
BANK26             100      0       0      57        0.0%
BITBANK25          100      0       0      54        0.0%
BANK25             100      0       0      55        0.0%
BITBANK24          100      0       0      52        0.0%
BANK24             100      0       0      53        0.0%
BITBANK23          100      0       0      50        0.0%
BANK23             100      0       0      51        0.0%
BITBANK22          100      0       0      48        0.0%
BANK22             100      0       0      49        0.0%
BITBANK21          100      0       0      46        0.0%
BANK21             100      0       0      47        0.0%
BITBANK20          100      0       0      44        0.0%
BANK20             100      0       0      45        0.0%
BITBANK19          100      0       0      42        0.0%
BANK19             100      0       0      43        0.0%
BITBANK18          100      0       0      40        0.0%
BANK18             100      0       0      41        0.0%
BITBANK17          100      0       0      38        0.0%
BANK17             100      0       0      39        0.0%
BITBANK16          100      0       0      36        0.0%
BANK16             100      0       0      37        0.0%
BITBANK15          100      0       0      34        0.0%
BANK15             100      0       0      35        0.0%
BITBANK14          100      0       0      32        0.0%
BANK14             100      0       0      33        0.0%
BITBANK13          100      0       0      30        0.0%
BANK13             100      0       0      31        0.0%
BITBANK12          100      0       0      28        0.0%
BANK12             100      0       0      29        0.0%
BITBANK11          100      0       0      26        0.0%
BANK11             100      0       0      27        0.0%
BITBANK10          100      0       0      24        0.0%
BANK10             100      0       0      25        0.0%
BITBANK9           100      0       0      22        0.0%
BANK9              100      0       0      23        0.0%
BITBANK8           100      0       0      20        0.0%
BANK8              100      0       0      21        0.0%
BITBANK7           100      0       0      18        0.0%
BANK7              100      0       0      19        0.0%
BITBANK6           100      0       0      16        0.0%
BANK6              100      0       0      17        0.0%
BITBANK5           100      0       0      14        0.0%
BANK5              100      0       0      15        0.0%
BITBANK4           100      0       0      12        0.0%
BANK4              100      0       0      13        0.0%
BITBANK3           100      0       0      10        0.0%
BANK3              100      0       0      11        0.0%
BITBANK2           100      0       0       8        0.0%
BANK2              100      0       0       9        0.0%
BITBANK1           100      0       0       6        0.0%
BANK1              100      0       0       7        0.0%
BITBIGSFRhlhllh     C2      0       0      70        0.0%
BITBANK0            A0      0       0       4        0.0%
BANK0               A0      0       0       5        0.0%
BITCOMRAM           5F      0       0       0        0.0%
COMRAM              5F     31      53       1       87.4%
BITBIGSFRhh         32      0       0      68        0.0%
BITBIGSFRllllh       F      0       0      77        0.0%
BITBIGSFRlllh        F      0       0      76        0.0%
BITBIGSFRllh         F      0       0      75        0.0%
BITBIGSFRhlhlll      6      0       0      71        0.0%
BITBIGSFRhlhh        5      0       0      69        0.0%
BITBIGSFRhlllh       1      0       0      72        0.0%
BITBIGSFRhllll       1      0       0      73        0.0%
BIGSFR               0      0       0     200        0.0%
BITSFR_8             0      0       0     200        0.0%
SFR_8                0      0       0     200        0.0%
BITSFR_7             0      0       0     200        0.0%
SFR_7                0      0       0     200        0.0%
BITSFR_6             0      0       0     200        0.0%
SFR_6                0      0       0     200        0.0%
BITSFR_5             0      0       0     200        0.0%
SFR_5                0      0       0     200        0.0%
BITSFR_4             0      0       0     200        0.0%
SFR_4                0      0       0     200        0.0%
BITSFR_3             0      0       0     200        0.0%
SFR_3                0      0       0     200        0.0%
BITSFR_2             0      0       0     200        0.0%
SFR_2                0      0       0     200        0.0%
BITSFR_1             0      0       0     200        0.0%
SFR_1                0      0       0     200        0.0%
BITSFR               0      0       0     200        0.0%
SFR                  0      0       0     200        0.0%
STACK                0      0       0       2        0.0%
NULL                 0      0       0       0        0.0%
ABS                  0      0      53      79        0.0%
DATA                 0      0      53       3        0.0%
CODE                 0      0       0       0        0.0%


Microchip Technology PIC18 Macro Assembler V2.46 build 20240104201356 
Symbol Table                                                                                   Wed Apr 24 13:59:36 2024

                      l94 25A8                        l88 25A4                       l120 2B02  
                     l113 2C52                       l116 2A26                       l133 2B82  
                     l126 2CBE                       l137 2BD8                       l410 2A20  
                     l405 29DA                       l802 2858                       l761 2302  
                     l809 28B4                       l754 20E8                       l771 2432  
                     l763 237A                       l764 2368                       l758 2470  
                     l795 27C0                       l798 291C                       u400 2B90  
                     u401 2B8C                       u410 2B9E                       u411 2B9A  
                     u420 2BAC                       u421 2BA8                       u430 2BD0  
                     u431 2BCC                       u440 2C42                       u441 2C3E  
                     u370 2B0E                       u700 2108                       u380 2B4A  
                     u701 2104                       u381 2B46                       u710 22A6  
                     u630 203E                       u631 203A                       u800 241A  
                     u720 2300                       u640 2050                       u801 2416  
                     u721 22FC                       u641 204C                       u810 2454  
                     u730 2320                       u650 2060                       u394 2B60  
                     u811 2450                       u731 231C                       u715 229C  
                     u651 205C                       u395 2B5C                       u820 294C  
                     u740 2332                       u660 20A0                       u900 283C  
                     u821 2948                       u741 232E                       u661 209C  
                     u901 2838                       u830 298A                       u750 2360  
                     u670 20B2                       u910 2886                       u831 2986  
                     u751 235C                       u671 20AE                       u911 2882  
                     u840 29A8                       u760 2376                       u680 20C2  
                     u920 28A4                       u841 29A4                       u761 2372  
                     u681 20BE                       u921 28A0                       u850 29C8  
                     u770 238A                       u690 20F8                       u930 28B4  
                     u851 29C4                       u771 2386                       u691 20F4  
                     u931 28B0                       u860 2A18                       u780 23A4  
                     u940 28C2                       u861 2A14                       u781 23A0  
                     u941 28BE                       u790 23EC                       u950 28FC  
                     u870 277C                       u791 23E8                       u951 28F8  
                     u871 2778                       u960 290A                       u880 278A  
                     u961 2906                       u881 2786                       u890 27E6  
                     u970 2A34                       u891 27E2                       u971 2A30  
                     u980 2ACA                       u981 2AC6                       u990 24B2  
                     u991 24AE                       _prA 0052                       _prB 0050  
                     wreg 3FE8              ___flmul@aexp 0020              ___flmul@bexp 0021  
            ___flmul@sign 001B              ___flmul@temp 0026              ___flmul@prod 0022  
                    l1011 2C54                      l1021 2C90                      l1013 2C7E  
                    l1111 2C22                      l1023 2C92                      l1015 2C8A  
                    l1113 2C42                      l1105 2BEE                      l1025 2C96  
                    l1017 2C8C                      l1107 2BF2                      l1027 2C98  
                    l1019 2C8E                      l1301 222C                      l1109 2C08  
                    l1061 2B1E                      l1029 2CBC                      l1311 22CA  
                    l1303 223C                      l1231 2024                      l1071 2B4E  
                    l1063 2B22                      l1321 2320                      l1313 22E8  
                    l1305 225C                      l1241 2060                      l1233 2030  
                    l1401 2840                      l1081 2B90                      l1073 2B6A  
                    l1065 2B26                      l1057 2B04                      l1331 238A  
                    l1323 2324                      l1315 22F2                      l1307 2286  
                    l1251 2092                      l1243 2070                      l1235 203E  
                    l1411 28A4                      l1403 2842                      l1091 2BB4  
                    l1083 2B9E                      l1075 2B7A                      l1067 2B2E  
                    l1059 2B1A                      l1341 23EC                      l1333 2396  
                    l1325 2332                      l1317 2300                      l1309 22BC  
                    l1261 20D2                      l1253 20A0                      l1245 2076  
                    l1237 2040                      l1421 28FC                      l1413 28C2  
                    l1405 284E                      l1093 2BD0                      l1501 254A  
                    l1351 2454                      l1343 2400                      l1335 23A4  
                    l1327 2360                      l1319 2312                      l1271 211C  
                    l1263 20D8                      l1255 20A2                      l1247 2086  
                    l1239 2050                      l1423 290A                      l1415 28C4  
                    l1407 288A                      l1431 2A34                      l1087 2BB0  
                    l1511 2586                      l1503 2552                      l1361 291E  
                    l1353 2456                      l1345 241A                      l1337 23CE  
                    l1281 2178                      l1273 212C                      l1265 20F8  
                    l1257 20B2                      l1249 208C                      l1425 290C  
                    l1417 28C8                      l1409 2896                      l1433 2A4C  
                    l1097 2BDA                      l1089 2BB0                      l1521 25DC  
                    l1505 2566                      l1513 258E                      l1371 29A8  
                    l1363 294C                      l1347 2436                      l1355 245C  
                    l1339 23D2                      l1291 21BE                      l1283 2184  
                    l1275 2136                      l1267 2108                      l1259 20C2  
                    l1419 28EC                      l1443 2AD6                      l1435 2A98  
                    l1099 2BE6                      l1531 2626                      l1523 25E0  
                    l1515 25B6                      l1507 256C                      l1373 29BA  
                    l1365 295C                      l1357 2460                      l1349 2446  
                    l1293 21CE                      l1285 2190                      l1277 2150  
                    l1445 2AFA                      l1437 2ACA                      l1429 2A22  
                    l1541 2674                      l1533 262A                      l1525 25FA  
                    l1517 25C2                      l1509 2582                      l1461 247C  
                    l1375 29C8                      l1367 298A                      l1295 21DE  
                    l1287 219E                      l1279 215C                      l1391 27E6  
                    l1383 276C                      l1551 26E0                      l1543 2690  
                    l1535 2644                      l1527 260E                      l1519 25CA  
                    l1471 24B2                      l1463 2488                      l1455 2472  
                    l1377 2A18                      l1369 299A                      l1297 21FC  
                    l1289 21AE                      l1385 277C                      l1561 2714  
                    l1553 26F2                      l1545 26AC                      l1537 2658  
                    l1529 2614                      l1481 24DA                      l1473 24BA  
                    l1465 248E                      l1457 2476                      l1379 2A1E  
                    l1299 220C                      l1395 27FA                      l1387 278A  
                    l1555 26F4                      l1563 271C                      l1547 26B0  
                    l1539 265E                      l1491 250E                      l1483 24E0  
                    l1475 24BE                      l1467 249A                      l1459 2476  
                    l1397 2802                      l1389 27D0                      l1565 272E  
                    l1557 270A                      l1549 26C8                      l1493 2514  
                    l1485 24E4                      l1477 24C2                      l1469 249E  
                    l1399 280E                      l1567 2746                      l1559 270C  
                    l1495 252A                      l1487 24F2                      l1479 24C4  
                    l1569 275E                      l1489 24FA                      l1497 252E  
                    l1499 253C                      u1000 24F2                      u1001 24EE  
                    u1010 253C                      u1011 2538                      u1100 26AC  
                    u1020 254A                      u1101 26A8                      u1021 2546  
                    u1110 26C8                      u1030 25A0                      u1111 26C4  
                    u1031 259C                      u1120 26E0                      u1040 25B6  
                    u1121 26DC                      u1041 25B2                      u1130 26F2  
                    u1050 25DC                      u1131 26EE                      u1051 25D8  
                    u1140 272E                      u1060 25FA                      u1141 272A  
                    u1061 25F6                      u1150 2746                      u1070 2626  
                    u1151 2742                      u1207 2668                      u1071 2622  
                    u1160 275E                      u1080 2644                      u1161 275A  
                    u1217 26FE                      u1081 2640                      u1090 2690  
                    u1227 2B70                      u1091 268C                      u1237 2BFC  
                    u1247 2C16                      u1177 24CE                      u1187 251E  
                    u1197 2576                      _data 0032                      _conv 2A22  
                    _main 2472                      _temp 0040                      fsr1l 3FE1  
                    prodh 3FF4                      prodl 3FF3                      start FFFC  
            ___param_bank 0000                     ?_conv 0028                     ?_main 0001  
                   _ADCLK 3EFF                     _ADPCH 3EF1           __end_of___flmul 2472  
                   _HCode 004E                     _PORTB 3FCB                     _PORTC 3FCC  
                   _PORTD 3FCD                     _LCode 004C                     _TRISA 3FC2  
                   _TRISB 3FC3                     _TRISC 3FC4                     _TRISD 3FC5  
                   _error 2BDA                     tablat 3FF5                     status 3FD8  
         __initialization 2CC0              __end_of_conv 2B04              __end_of_main 276A  
                  ??_conv 002A                    ??_main 002C             __activetblptr 0001  
                  _ADACQH 3EF4                    _ADACQL 3EF3                    ?_error 0001  
                  _ADRESH 3EF0                    _ADRESL 3EEF                    _ADPREH 3EF7  
                  _ADPREL 3EF6                    _ANSELB 3A50                    _ANSELC 3A60  
                  _ANSELD 3A70          __end_of___xxtofl 291E                    ___flge 291E  
               ??___flmul 0017                    _countA 0046                    _countB 0044  
                  clear_0 2CE8                    isa$std 0001                    error@i 0003  
            __pdataCOMRAM 004A              __mediumconst 0000                    tblptrh 3FF7  
                  tblptrl 3FF6                    tblptru 3FF8                ___flge@ff1 0001  
              ___flge@ff2 0005              ___xxtofl@arg 000B              ___xxtofl@exp 000A  
            ___xxtofl@val 0001                __accesstop 0060   __end_of__initialization 2CEE  
           ___rparam_used 0001            __pcstackCOMRAM 0001             __end_of_error 2C54  
                 ??_error 0001                __pnvCOMRAM 0050                   ?___flge 0001  
               ?___xxtofl 0001                   __Hparam 0000                   __Lparam 0000  
  scanKeypad@keypadLayout 0003                   ___flmul 2024              __psmallconst 2000  
                 __pcinit 2CC0                   __ramtop 2000                   _digital 0048  
              _scanKeypad 2B04                   __ptext0 2472                   __ptext1 2C54  
                 __ptext2 2B04                   __ptext3 2BDA                   __ptext4 2A22  
                 __ptext5 276A                   __ptext6 2024                   __ptext7 291E  
              ??___xxtofl 0005                   _vSwitch 0042                   _voltage 003C  
    end_of_initialization 2CEE                   postdec1 3FE5           _segmentPatterns 2019  
                 postinc0 3FEE                   postinc2 3FDE                 _PORTBbits 3FCB  
               _PORTCbits 3FCC                _pressedKey 004A                _setupPorts 2C54  
           ___xxtofl@sign 0009                 _TRISAbits 3FC2               ___flmul@grs 001C  
          __end_of___flge 2A22             __pidataCOMRAM 2CFC               ?_scanKeypad 0001  
     start_initialization 2CC0   __end_of_segmentPatterns 2023                  ??___flge 0009  
             ?_setupPorts 0001                 ___flmul@a 0013                 ___flmul@b 000F  
             __pbssCOMRAM 0032          scanKeypad@F16536 2001                  ?___flmul 000F  
             __smallconst 2000                _ADCON0bits 3EF8                 copy_data0 2CD4  
                __Hrparam 0000                  __Lrparam 0000              __Lsmallconst 2000  
            ??_scanKeypad 0001           main@pattern_234 002E           main@pattern_235 002F  
         main@pattern_236 0030           main@pattern_237 0031                _ANSELAbits 3A40  
                ___xxtofl 276A        __end_of_scanKeypad 2BDA  __end_ofscanKeypad@F16536 2019  
                isa$xinst 0000              ??_setupPorts 0001        __end_of_setupPorts 2CC0  
           scanKeypad@col 001D             scanKeypad@row 001B  
